Archive member included to satisfy reference by file (symbol)

/home/ben/Toradex/LinuxDevelop/FreeRTOS/Colibri-iMX8X/gcc-arm-none-eabi-9-2020-q2-update/bin/../lib/gcc/arm-none-eabi/9.3.1/../../../../arm-none-eabi/lib/thumb/v7e-m+fp/hard/libc_nano.a(lib_a-errno.o)
                              CMakeFiles/freertos_hello.elf.dir/home/ben/Toradex/LinuxDevelop/FreeRTOS/Colibri-iMX8X/SDK_2_9_0_MEK-MIMX8QX/devices/MIMX8QX6/utilities/str/fsl_str.c.obj (__errno)
/home/ben/Toradex/LinuxDevelop/FreeRTOS/Colibri-iMX8X/gcc-arm-none-eabi-9-2020-q2-update/bin/../lib/gcc/arm-none-eabi/9.3.1/../../../../arm-none-eabi/lib/thumb/v7e-m+fp/hard/libc_nano.a(lib_a-exit.o)
                              /home/ben/Toradex/LinuxDevelop/FreeRTOS/Colibri-iMX8X/gcc-arm-none-eabi-9-2020-q2-update/bin/../lib/gcc/arm-none-eabi/9.3.1/../../../../arm-none-eabi/lib/thumb/v7e-m+fp/hard/crt0.o (exit)
/home/ben/Toradex/LinuxDevelop/FreeRTOS/Colibri-iMX8X/gcc-arm-none-eabi-9-2020-q2-update/bin/../lib/gcc/arm-none-eabi/9.3.1/../../../../arm-none-eabi/lib/thumb/v7e-m+fp/hard/libc_nano.a(lib_a-impure.o)
                              /home/ben/Toradex/LinuxDevelop/FreeRTOS/Colibri-iMX8X/gcc-arm-none-eabi-9-2020-q2-update/bin/../lib/gcc/arm-none-eabi/9.3.1/../../../../arm-none-eabi/lib/thumb/v7e-m+fp/hard/libc_nano.a(lib_a-exit.o) (_global_impure_ptr)
/home/ben/Toradex/LinuxDevelop/FreeRTOS/Colibri-iMX8X/gcc-arm-none-eabi-9-2020-q2-update/bin/../lib/gcc/arm-none-eabi/9.3.1/../../../../arm-none-eabi/lib/thumb/v7e-m+fp/hard/libc_nano.a(lib_a-init.o)
                              /home/ben/Toradex/LinuxDevelop/FreeRTOS/Colibri-iMX8X/gcc-arm-none-eabi-9-2020-q2-update/bin/../lib/gcc/arm-none-eabi/9.3.1/../../../../arm-none-eabi/lib/thumb/v7e-m+fp/hard/crt0.o (__libc_init_array)
/home/ben/Toradex/LinuxDevelop/FreeRTOS/Colibri-iMX8X/gcc-arm-none-eabi-9-2020-q2-update/bin/../lib/gcc/arm-none-eabi/9.3.1/../../../../arm-none-eabi/lib/thumb/v7e-m+fp/hard/libc_nano.a(lib_a-malloc.o)
                              CMakeFiles/freertos_hello.elf.dir/home/ben/Toradex/LinuxDevelop/FreeRTOS/Colibri-iMX8X/SDK_2_9_0_MEK-MIMX8QX/devices/MIMX8QX6/drivers/fsl_common.c.obj (malloc)
/home/ben/Toradex/LinuxDevelop/FreeRTOS/Colibri-iMX8X/gcc-arm-none-eabi-9-2020-q2-update/bin/../lib/gcc/arm-none-eabi/9.3.1/../../../../arm-none-eabi/lib/thumb/v7e-m+fp/hard/libc_nano.a(lib_a-memcpy-stub.o)
                              CMakeFiles/freertos_hello.elf.dir/home/ben/Toradex/LinuxDevelop/FreeRTOS/Colibri-iMX8X/SDK_2_9_0_MEK-MIMX8QX/rtos/freertos/freertos_kernel/queue.c.obj (memcpy)
/home/ben/Toradex/LinuxDevelop/FreeRTOS/Colibri-iMX8X/gcc-arm-none-eabi-9-2020-q2-update/bin/../lib/gcc/arm-none-eabi/9.3.1/../../../../arm-none-eabi/lib/thumb/v7e-m+fp/hard/libc_nano.a(lib_a-memset.o)
                              /home/ben/Toradex/LinuxDevelop/FreeRTOS/Colibri-iMX8X/gcc-arm-none-eabi-9-2020-q2-update/bin/../lib/gcc/arm-none-eabi/9.3.1/../../../../arm-none-eabi/lib/thumb/v7e-m+fp/hard/crt0.o (memset)
/home/ben/Toradex/LinuxDevelop/FreeRTOS/Colibri-iMX8X/gcc-arm-none-eabi-9-2020-q2-update/bin/../lib/gcc/arm-none-eabi/9.3.1/../../../../arm-none-eabi/lib/thumb/v7e-m+fp/hard/libc_nano.a(lib_a-nano-freer.o)
                              /home/ben/Toradex/LinuxDevelop/FreeRTOS/Colibri-iMX8X/gcc-arm-none-eabi-9-2020-q2-update/bin/../lib/gcc/arm-none-eabi/9.3.1/../../../../arm-none-eabi/lib/thumb/v7e-m+fp/hard/libc_nano.a(lib_a-malloc.o) (_free_r)
/home/ben/Toradex/LinuxDevelop/FreeRTOS/Colibri-iMX8X/gcc-arm-none-eabi-9-2020-q2-update/bin/../lib/gcc/arm-none-eabi/9.3.1/../../../../arm-none-eabi/lib/thumb/v7e-m+fp/hard/libc_nano.a(lib_a-nano-mallocr.o)
                              /home/ben/Toradex/LinuxDevelop/FreeRTOS/Colibri-iMX8X/gcc-arm-none-eabi-9-2020-q2-update/bin/../lib/gcc/arm-none-eabi/9.3.1/../../../../arm-none-eabi/lib/thumb/v7e-m+fp/hard/libc_nano.a(lib_a-malloc.o) (_malloc_r)
/home/ben/Toradex/LinuxDevelop/FreeRTOS/Colibri-iMX8X/gcc-arm-none-eabi-9-2020-q2-update/bin/../lib/gcc/arm-none-eabi/9.3.1/../../../../arm-none-eabi/lib/thumb/v7e-m+fp/hard/libc_nano.a(lib_a-sbrkr.o)
                              /home/ben/Toradex/LinuxDevelop/FreeRTOS/Colibri-iMX8X/gcc-arm-none-eabi-9-2020-q2-update/bin/../lib/gcc/arm-none-eabi/9.3.1/../../../../arm-none-eabi/lib/thumb/v7e-m+fp/hard/libc_nano.a(lib_a-nano-mallocr.o) (_sbrk_r)
/home/ben/Toradex/LinuxDevelop/FreeRTOS/Colibri-iMX8X/gcc-arm-none-eabi-9-2020-q2-update/bin/../lib/gcc/arm-none-eabi/9.3.1/../../../../arm-none-eabi/lib/thumb/v7e-m+fp/hard/libc_nano.a(lib_a-strlen.o)
                              CMakeFiles/freertos_hello.elf.dir/home/ben/Toradex/LinuxDevelop/FreeRTOS/Colibri-iMX8X/SDK_2_9_0_MEK-MIMX8QX/devices/MIMX8QX6/utilities/str/fsl_str.c.obj (strlen)
/home/ben/Toradex/LinuxDevelop/FreeRTOS/Colibri-iMX8X/gcc-arm-none-eabi-9-2020-q2-update/bin/../lib/gcc/arm-none-eabi/9.3.1/../../../../arm-none-eabi/lib/thumb/v7e-m+fp/hard/libc_nano.a(lib_a-strtoul.o)
                              CMakeFiles/freertos_hello.elf.dir/home/ben/Toradex/LinuxDevelop/FreeRTOS/Colibri-iMX8X/SDK_2_9_0_MEK-MIMX8QX/devices/MIMX8QX6/utilities/str/fsl_str.c.obj (strtoul)
/home/ben/Toradex/LinuxDevelop/FreeRTOS/Colibri-iMX8X/gcc-arm-none-eabi-9-2020-q2-update/bin/../lib/gcc/arm-none-eabi/9.3.1/../../../../arm-none-eabi/lib/thumb/v7e-m+fp/hard/libc_nano.a(lib_a-ctype_.o)
                              /home/ben/Toradex/LinuxDevelop/FreeRTOS/Colibri-iMX8X/gcc-arm-none-eabi-9-2020-q2-update/bin/../lib/gcc/arm-none-eabi/9.3.1/../../../../arm-none-eabi/lib/thumb/v7e-m+fp/hard/libc_nano.a(lib_a-strtoul.o) (_ctype_)
/home/ben/Toradex/LinuxDevelop/FreeRTOS/Colibri-iMX8X/gcc-arm-none-eabi-9-2020-q2-update/bin/../lib/gcc/arm-none-eabi/9.3.1/../../../../arm-none-eabi/lib/thumb/v7e-m+fp/hard/libc_nano.a(lib_a-mlock.o)
                              /home/ben/Toradex/LinuxDevelop/FreeRTOS/Colibri-iMX8X/gcc-arm-none-eabi-9-2020-q2-update/bin/../lib/gcc/arm-none-eabi/9.3.1/../../../../arm-none-eabi/lib/thumb/v7e-m+fp/hard/libc_nano.a(lib_a-nano-freer.o) (__malloc_lock)
/home/ben/Toradex/LinuxDevelop/FreeRTOS/Colibri-iMX8X/gcc-arm-none-eabi-9-2020-q2-update/bin/../lib/gcc/arm-none-eabi/9.3.1/../../../../arm-none-eabi/lib/thumb/v7e-m+fp/hard/libc_nano.a(lib_a-reent.o)
                              /home/ben/Toradex/LinuxDevelop/FreeRTOS/Colibri-iMX8X/gcc-arm-none-eabi-9-2020-q2-update/bin/../lib/gcc/arm-none-eabi/9.3.1/../../../../arm-none-eabi/lib/thumb/v7e-m+fp/hard/libc_nano.a(lib_a-sbrkr.o) (errno)
/home/ben/Toradex/LinuxDevelop/FreeRTOS/Colibri-iMX8X/gcc-arm-none-eabi-9-2020-q2-update/bin/../lib/gcc/arm-none-eabi/9.3.1/../../../../arm-none-eabi/lib/thumb/v7e-m+fp/hard/libc_nano.a(lib_a-lock.o)
                              /home/ben/Toradex/LinuxDevelop/FreeRTOS/Colibri-iMX8X/gcc-arm-none-eabi-9-2020-q2-update/bin/../lib/gcc/arm-none-eabi/9.3.1/../../../../arm-none-eabi/lib/thumb/v7e-m+fp/hard/libc_nano.a(lib_a-mlock.o) (__retarget_lock_acquire_recursive)
/home/ben/Toradex/LinuxDevelop/FreeRTOS/Colibri-iMX8X/gcc-arm-none-eabi-9-2020-q2-update/bin/../lib/gcc/arm-none-eabi/9.3.1/thumb/v7e-m+fp/hard/libgcc.a(_aeabi_ldivmod.o)
                              CMakeFiles/freertos_hello.elf.dir/home/ben/Toradex/LinuxDevelop/FreeRTOS/Colibri-iMX8X/SDK_2_9_0_MEK-MIMX8QX/devices/MIMX8QX6/drivers/fsl_lpspi.c.obj (__aeabi_ldivmod)
/home/ben/Toradex/LinuxDevelop/FreeRTOS/Colibri-iMX8X/gcc-arm-none-eabi-9-2020-q2-update/bin/../lib/gcc/arm-none-eabi/9.3.1/thumb/v7e-m+fp/hard/libgcc.a(_aeabi_uldivmod.o)
                              CMakeFiles/freertos_hello.elf.dir/home/ben/Toradex/LinuxDevelop/FreeRTOS/Colibri-iMX8X/SDK_2_9_0_MEK-MIMX8QX/devices/MIMX8QX6/drivers/fsl_common.c.obj (__aeabi_uldivmod)
/home/ben/Toradex/LinuxDevelop/FreeRTOS/Colibri-iMX8X/gcc-arm-none-eabi-9-2020-q2-update/bin/../lib/gcc/arm-none-eabi/9.3.1/thumb/v7e-m+fp/hard/libgcc.a(_udivmoddi4.o)
                              /home/ben/Toradex/LinuxDevelop/FreeRTOS/Colibri-iMX8X/gcc-arm-none-eabi-9-2020-q2-update/bin/../lib/gcc/arm-none-eabi/9.3.1/thumb/v7e-m+fp/hard/libgcc.a(_aeabi_ldivmod.o) (__udivmoddi4)
/home/ben/Toradex/LinuxDevelop/FreeRTOS/Colibri-iMX8X/gcc-arm-none-eabi-9-2020-q2-update/bin/../lib/gcc/arm-none-eabi/9.3.1/thumb/v7e-m+fp/hard/libgcc.a(_dvmd_tls.o)
                              /home/ben/Toradex/LinuxDevelop/FreeRTOS/Colibri-iMX8X/gcc-arm-none-eabi-9-2020-q2-update/bin/../lib/gcc/arm-none-eabi/9.3.1/thumb/v7e-m+fp/hard/libgcc.a(_aeabi_ldivmod.o) (__aeabi_ldiv0)
/home/ben/Toradex/LinuxDevelop/FreeRTOS/Colibri-iMX8X/gcc-arm-none-eabi-9-2020-q2-update/bin/../lib/gcc/arm-none-eabi/9.3.1/../../../../arm-none-eabi/lib/thumb/v7e-m+fp/hard/libnosys.a(_exit.o)
                              /home/ben/Toradex/LinuxDevelop/FreeRTOS/Colibri-iMX8X/gcc-arm-none-eabi-9-2020-q2-update/bin/../lib/gcc/arm-none-eabi/9.3.1/../../../../arm-none-eabi/lib/thumb/v7e-m+fp/hard/libc_nano.a(lib_a-exit.o) (_exit)

Allocating common symbols
Common symbol       size              file

__lock___atexit_recursive_mutex
                    0x1               /home/ben/Toradex/LinuxDevelop/FreeRTOS/Colibri-iMX8X/gcc-arm-none-eabi-9-2020-q2-update/bin/../lib/gcc/arm-none-eabi/9.3.1/../../../../arm-none-eabi/lib/thumb/v7e-m+fp/hard/libc_nano.a(lib_a-lock.o)
__lock___arc4random_mutex
                    0x1               /home/ben/Toradex/LinuxDevelop/FreeRTOS/Colibri-iMX8X/gcc-arm-none-eabi-9-2020-q2-update/bin/../lib/gcc/arm-none-eabi/9.3.1/../../../../arm-none-eabi/lib/thumb/v7e-m+fp/hard/libc_nano.a(lib_a-lock.o)
errno               0x4               /home/ben/Toradex/LinuxDevelop/FreeRTOS/Colibri-iMX8X/gcc-arm-none-eabi-9-2020-q2-update/bin/../lib/gcc/arm-none-eabi/9.3.1/../../../../arm-none-eabi/lib/thumb/v7e-m+fp/hard/libc_nano.a(lib_a-reent.o)
__lock___env_recursive_mutex
                    0x1               /home/ben/Toradex/LinuxDevelop/FreeRTOS/Colibri-iMX8X/gcc-arm-none-eabi-9-2020-q2-update/bin/../lib/gcc/arm-none-eabi/9.3.1/../../../../arm-none-eabi/lib/thumb/v7e-m+fp/hard/libc_nano.a(lib_a-lock.o)
__lock___sinit_recursive_mutex
                    0x1               /home/ben/Toradex/LinuxDevelop/FreeRTOS/Colibri-iMX8X/gcc-arm-none-eabi-9-2020-q2-update/bin/../lib/gcc/arm-none-eabi/9.3.1/../../../../arm-none-eabi/lib/thumb/v7e-m+fp/hard/libc_nano.a(lib_a-lock.o)
__lock___malloc_recursive_mutex
                    0x1               /home/ben/Toradex/LinuxDevelop/FreeRTOS/Colibri-iMX8X/gcc-arm-none-eabi-9-2020-q2-update/bin/../lib/gcc/arm-none-eabi/9.3.1/../../../../arm-none-eabi/lib/thumb/v7e-m+fp/hard/libc_nano.a(lib_a-lock.o)
__lock___at_quick_exit_mutex
                    0x1               /home/ben/Toradex/LinuxDevelop/FreeRTOS/Colibri-iMX8X/gcc-arm-none-eabi-9-2020-q2-update/bin/../lib/gcc/arm-none-eabi/9.3.1/../../../../arm-none-eabi/lib/thumb/v7e-m+fp/hard/libc_nano.a(lib_a-lock.o)
__lock___dd_hash_mutex
                    0x1               /home/ben/Toradex/LinuxDevelop/FreeRTOS/Colibri-iMX8X/gcc-arm-none-eabi-9-2020-q2-update/bin/../lib/gcc/arm-none-eabi/9.3.1/../../../../arm-none-eabi/lib/thumb/v7e-m+fp/hard/libc_nano.a(lib_a-lock.o)
__lock___tz_mutex   0x1               /home/ben/Toradex/LinuxDevelop/FreeRTOS/Colibri-iMX8X/gcc-arm-none-eabi-9-2020-q2-update/bin/../lib/gcc/arm-none-eabi/9.3.1/../../../../arm-none-eabi/lib/thumb/v7e-m+fp/hard/libc_nano.a(lib_a-lock.o)
__lock___sfp_recursive_mutex
                    0x1               /home/ben/Toradex/LinuxDevelop/FreeRTOS/Colibri-iMX8X/gcc-arm-none-eabi-9-2020-q2-update/bin/../lib/gcc/arm-none-eabi/9.3.1/../../../../arm-none-eabi/lib/thumb/v7e-m+fp/hard/libc_nano.a(lib_a-lock.o)

Discarded input sections

 .text          0x0000000000000000        0x0 /home/ben/Toradex/LinuxDevelop/FreeRTOS/Colibri-iMX8X/gcc-arm-none-eabi-9-2020-q2-update/bin/../lib/gcc/arm-none-eabi/9.3.1/thumb/v7e-m+fp/hard/crti.o
 .data          0x0000000000000000        0x0 /home/ben/Toradex/LinuxDevelop/FreeRTOS/Colibri-iMX8X/gcc-arm-none-eabi-9-2020-q2-update/bin/../lib/gcc/arm-none-eabi/9.3.1/thumb/v7e-m+fp/hard/crti.o
 .bss           0x0000000000000000        0x0 /home/ben/Toradex/LinuxDevelop/FreeRTOS/Colibri-iMX8X/gcc-arm-none-eabi-9-2020-q2-update/bin/../lib/gcc/arm-none-eabi/9.3.1/thumb/v7e-m+fp/hard/crti.o
 .data          0x0000000000000000        0x4 /home/ben/Toradex/LinuxDevelop/FreeRTOS/Colibri-iMX8X/gcc-arm-none-eabi-9-2020-q2-update/bin/../lib/gcc/arm-none-eabi/9.3.1/thumb/v7e-m+fp/hard/crtbegin.o
 .data          0x0000000000000000        0x0 /home/ben/Toradex/LinuxDevelop/FreeRTOS/Colibri-iMX8X/gcc-arm-none-eabi-9-2020-q2-update/bin/../lib/gcc/arm-none-eabi/9.3.1/../../../../arm-none-eabi/lib/thumb/v7e-m+fp/hard/crt0.o
 .bss           0x0000000000000000        0x0 /home/ben/Toradex/LinuxDevelop/FreeRTOS/Colibri-iMX8X/gcc-arm-none-eabi-9-2020-q2-update/bin/../lib/gcc/arm-none-eabi/9.3.1/../../../../arm-none-eabi/lib/thumb/v7e-m+fp/hard/crt0.o
 .ARM.extab     0x0000000000000000        0x0 /home/ben/Toradex/LinuxDevelop/FreeRTOS/Colibri-iMX8X/gcc-arm-none-eabi-9-2020-q2-update/bin/../lib/gcc/arm-none-eabi/9.3.1/../../../../arm-none-eabi/lib/thumb/v7e-m+fp/hard/crt0.o
 .text          0x0000000000000000        0x0 CMakeFiles/freertos_hello.elf.dir/home/ben/Toradex/LinuxDevelop/FreeRTOS/Colibri-iMX8X/SDK_2_9_0_MEK-MIMX8QX/boards/mekmimx8qx/rtos_examples/freertos_lpspi/freertos_hello.c.obj
 .data          0x0000000000000000        0x0 CMakeFiles/freertos_hello.elf.dir/home/ben/Toradex/LinuxDevelop/FreeRTOS/Colibri-iMX8X/SDK_2_9_0_MEK-MIMX8QX/boards/mekmimx8qx/rtos_examples/freertos_lpspi/freertos_hello.c.obj
 .bss           0x0000000000000000        0x0 CMakeFiles/freertos_hello.elf.dir/home/ben/Toradex/LinuxDevelop/FreeRTOS/Colibri-iMX8X/SDK_2_9_0_MEK-MIMX8QX/boards/mekmimx8qx/rtos_examples/freertos_lpspi/freertos_hello.c.obj
 .text          0x0000000000000000        0x0 CMakeFiles/freertos_hello.elf.dir/home/ben/Toradex/LinuxDevelop/FreeRTOS/Colibri-iMX8X/SDK_2_9_0_MEK-MIMX8QX/boards/mekmimx8qx/rtos_examples/freertos_lpspi/pin_mux.c.obj
 .data          0x0000000000000000        0x0 CMakeFiles/freertos_hello.elf.dir/home/ben/Toradex/LinuxDevelop/FreeRTOS/Colibri-iMX8X/SDK_2_9_0_MEK-MIMX8QX/boards/mekmimx8qx/rtos_examples/freertos_lpspi/pin_mux.c.obj
 .bss           0x0000000000000000        0x0 CMakeFiles/freertos_hello.elf.dir/home/ben/Toradex/LinuxDevelop/FreeRTOS/Colibri-iMX8X/SDK_2_9_0_MEK-MIMX8QX/boards/mekmimx8qx/rtos_examples/freertos_lpspi/pin_mux.c.obj
 .text.BOARD_InitBootPins
                0x0000000000000000        0x2 CMakeFiles/freertos_hello.elf.dir/home/ben/Toradex/LinuxDevelop/FreeRTOS/Colibri-iMX8X/SDK_2_9_0_MEK-MIMX8QX/boards/mekmimx8qx/rtos_examples/freertos_lpspi/pin_mux.c.obj
 .text          0x0000000000000000        0x0 CMakeFiles/freertos_hello.elf.dir/home/ben/Toradex/LinuxDevelop/FreeRTOS/Colibri-iMX8X/SDK_2_9_0_MEK-MIMX8QX/boards/mekmimx8qx/rtos_examples/freertos_lpspi/board.c.obj
 .data          0x0000000000000000        0x0 CMakeFiles/freertos_hello.elf.dir/home/ben/Toradex/LinuxDevelop/FreeRTOS/Colibri-iMX8X/SDK_2_9_0_MEK-MIMX8QX/boards/mekmimx8qx/rtos_examples/freertos_lpspi/board.c.obj
 .bss           0x0000000000000000        0x0 CMakeFiles/freertos_hello.elf.dir/home/ben/Toradex/LinuxDevelop/FreeRTOS/Colibri-iMX8X/SDK_2_9_0_MEK-MIMX8QX/boards/mekmimx8qx/rtos_examples/freertos_lpspi/board.c.obj
 .text.BOARD_GetRpcHandle
                0x0000000000000000        0xc CMakeFiles/freertos_hello.elf.dir/home/ben/Toradex/LinuxDevelop/FreeRTOS/Colibri-iMX8X/SDK_2_9_0_MEK-MIMX8QX/boards/mekmimx8qx/rtos_examples/freertos_lpspi/board.c.obj
 .text.BOARD_InitPinsPre
                0x0000000000000000        0x2 CMakeFiles/freertos_hello.elf.dir/home/ben/Toradex/LinuxDevelop/FreeRTOS/Colibri-iMX8X/SDK_2_9_0_MEK-MIMX8QX/boards/mekmimx8qx/rtos_examples/freertos_lpspi/board.c.obj
 .text.BOARD_PowerOnBaseBoard
                0x0000000000000000        0x2 CMakeFiles/freertos_hello.elf.dir/home/ben/Toradex/LinuxDevelop/FreeRTOS/Colibri-iMX8X/SDK_2_9_0_MEK-MIMX8QX/boards/mekmimx8qx/rtos_examples/freertos_lpspi/board.c.obj
 .text          0x0000000000000000        0x0 CMakeFiles/freertos_hello.elf.dir/home/ben/Toradex/LinuxDevelop/FreeRTOS/Colibri-iMX8X/SDK_2_9_0_MEK-MIMX8QX/boards/mekmimx8qx/rtos_examples/freertos_lpspi/clock_config.c.obj
 .data          0x0000000000000000        0x0 CMakeFiles/freertos_hello.elf.dir/home/ben/Toradex/LinuxDevelop/FreeRTOS/Colibri-iMX8X/SDK_2_9_0_MEK-MIMX8QX/boards/mekmimx8qx/rtos_examples/freertos_lpspi/clock_config.c.obj
 .bss           0x0000000000000000        0x0 CMakeFiles/freertos_hello.elf.dir/home/ben/Toradex/LinuxDevelop/FreeRTOS/Colibri-iMX8X/SDK_2_9_0_MEK-MIMX8QX/boards/mekmimx8qx/rtos_examples/freertos_lpspi/clock_config.c.obj
 .text.BOARD_BootClockVLPR
                0x0000000000000000        0x4 CMakeFiles/freertos_hello.elf.dir/home/ben/Toradex/LinuxDevelop/FreeRTOS/Colibri-iMX8X/SDK_2_9_0_MEK-MIMX8QX/boards/mekmimx8qx/rtos_examples/freertos_lpspi/clock_config.c.obj
 .text.BOARD_BootClockHSRUN
                0x0000000000000000        0x4 CMakeFiles/freertos_hello.elf.dir/home/ben/Toradex/LinuxDevelop/FreeRTOS/Colibri-iMX8X/SDK_2_9_0_MEK-MIMX8QX/boards/mekmimx8qx/rtos_examples/freertos_lpspi/clock_config.c.obj
 .text          0x0000000000000000        0x0 CMakeFiles/freertos_hello.elf.dir/home/ben/Toradex/LinuxDevelop/FreeRTOS/Colibri-iMX8X/SDK_2_9_0_MEK-MIMX8QX/boards/mekmimx8qx/rtos_examples/freertos_lpspi/empty_rsc_table.c.obj
 .data          0x0000000000000000        0x0 CMakeFiles/freertos_hello.elf.dir/home/ben/Toradex/LinuxDevelop/FreeRTOS/Colibri-iMX8X/SDK_2_9_0_MEK-MIMX8QX/boards/mekmimx8qx/rtos_examples/freertos_lpspi/empty_rsc_table.c.obj
 .bss           0x0000000000000000        0x0 CMakeFiles/freertos_hello.elf.dir/home/ben/Toradex/LinuxDevelop/FreeRTOS/Colibri-iMX8X/SDK_2_9_0_MEK-MIMX8QX/boards/mekmimx8qx/rtos_examples/freertos_lpspi/empty_rsc_table.c.obj
 .text          0x0000000000000000        0x0 CMakeFiles/freertos_hello.elf.dir/home/ben/Toradex/LinuxDevelop/FreeRTOS/Colibri-iMX8X/SDK_2_9_0_MEK-MIMX8QX/devices/MIMX8QX6/drivers/fsl_clock.c.obj
 .data          0x0000000000000000        0x0 CMakeFiles/freertos_hello.elf.dir/home/ben/Toradex/LinuxDevelop/FreeRTOS/Colibri-iMX8X/SDK_2_9_0_MEK-MIMX8QX/devices/MIMX8QX6/drivers/fsl_clock.c.obj
 .bss           0x0000000000000000        0x0 CMakeFiles/freertos_hello.elf.dir/home/ben/Toradex/LinuxDevelop/FreeRTOS/Colibri-iMX8X/SDK_2_9_0_MEK-MIMX8QX/devices/MIMX8QX6/drivers/fsl_clock.c.obj
 .text.CLOCK_Deinit
                0x0000000000000000        0x2 CMakeFiles/freertos_hello.elf.dir/home/ben/Toradex/LinuxDevelop/FreeRTOS/Colibri-iMX8X/SDK_2_9_0_MEK-MIMX8QX/devices/MIMX8QX6/drivers/fsl_clock.c.obj
 .text.CLOCK_GetCoreSysClkFreq
                0x0000000000000000       0x24 CMakeFiles/freertos_hello.elf.dir/home/ben/Toradex/LinuxDevelop/FreeRTOS/Colibri-iMX8X/SDK_2_9_0_MEK-MIMX8QX/devices/MIMX8QX6/drivers/fsl_clock.c.obj
 .text.CLOCK_GetFreq
                0x0000000000000000       0x14 CMakeFiles/freertos_hello.elf.dir/home/ben/Toradex/LinuxDevelop/FreeRTOS/Colibri-iMX8X/SDK_2_9_0_MEK-MIMX8QX/devices/MIMX8QX6/drivers/fsl_clock.c.obj
 .text.CLOCK_DisableClock
                0x0000000000000000       0x2c CMakeFiles/freertos_hello.elf.dir/home/ben/Toradex/LinuxDevelop/FreeRTOS/Colibri-iMX8X/SDK_2_9_0_MEK-MIMX8QX/devices/MIMX8QX6/drivers/fsl_clock.c.obj
 .text          0x0000000000000000        0x0 CMakeFiles/freertos_hello.elf.dir/home/ben/Toradex/LinuxDevelop/FreeRTOS/Colibri-iMX8X/SDK_2_9_0_MEK-MIMX8QX/devices/MIMX8QX6/drivers/fsl_common.c.obj
 .data          0x0000000000000000        0x0 CMakeFiles/freertos_hello.elf.dir/home/ben/Toradex/LinuxDevelop/FreeRTOS/Colibri-iMX8X/SDK_2_9_0_MEK-MIMX8QX/devices/MIMX8QX6/drivers/fsl_common.c.obj
 .bss           0x0000000000000000        0x0 CMakeFiles/freertos_hello.elf.dir/home/ben/Toradex/LinuxDevelop/FreeRTOS/Colibri-iMX8X/SDK_2_9_0_MEK-MIMX8QX/devices/MIMX8QX6/drivers/fsl_common.c.obj
 .text.SDK_Malloc
                0x0000000000000000       0x42 CMakeFiles/freertos_hello.elf.dir/home/ben/Toradex/LinuxDevelop/FreeRTOS/Colibri-iMX8X/SDK_2_9_0_MEK-MIMX8QX/devices/MIMX8QX6/drivers/fsl_common.c.obj
 .text.SDK_Free
                0x0000000000000000       0x18 CMakeFiles/freertos_hello.elf.dir/home/ben/Toradex/LinuxDevelop/FreeRTOS/Colibri-iMX8X/SDK_2_9_0_MEK-MIMX8QX/devices/MIMX8QX6/drivers/fsl_common.c.obj
 .text.SDK_DelayAtLeastUs
                0x0000000000000000       0x20 CMakeFiles/freertos_hello.elf.dir/home/ben/Toradex/LinuxDevelop/FreeRTOS/Colibri-iMX8X/SDK_2_9_0_MEK-MIMX8QX/devices/MIMX8QX6/drivers/fsl_common.c.obj
 .comment       0x0000000000000000       0x4d CMakeFiles/freertos_hello.elf.dir/home/ben/Toradex/LinuxDevelop/FreeRTOS/Colibri-iMX8X/SDK_2_9_0_MEK-MIMX8QX/devices/MIMX8QX6/drivers/fsl_common.c.obj
 .ARM.attributes
                0x0000000000000000       0x34 CMakeFiles/freertos_hello.elf.dir/home/ben/Toradex/LinuxDevelop/FreeRTOS/Colibri-iMX8X/SDK_2_9_0_MEK-MIMX8QX/devices/MIMX8QX6/drivers/fsl_common.c.obj
 .text          0x0000000000000000        0x0 CMakeFiles/freertos_hello.elf.dir/home/ben/Toradex/LinuxDevelop/FreeRTOS/Colibri-iMX8X/SDK_2_9_0_MEK-MIMX8QX/devices/MIMX8QX6/scfw_api/main/ipc_imx8qx.c.obj
 .data          0x0000000000000000        0x0 CMakeFiles/freertos_hello.elf.dir/home/ben/Toradex/LinuxDevelop/FreeRTOS/Colibri-iMX8X/SDK_2_9_0_MEK-MIMX8QX/devices/MIMX8QX6/scfw_api/main/ipc_imx8qx.c.obj
 .bss           0x0000000000000000        0x0 CMakeFiles/freertos_hello.elf.dir/home/ben/Toradex/LinuxDevelop/FreeRTOS/Colibri-iMX8X/SDK_2_9_0_MEK-MIMX8QX/devices/MIMX8QX6/scfw_api/main/ipc_imx8qx.c.obj
 .text.sc_ipc_close
                0x0000000000000000        0x2 CMakeFiles/freertos_hello.elf.dir/home/ben/Toradex/LinuxDevelop/FreeRTOS/Colibri-iMX8X/SDK_2_9_0_MEK-MIMX8QX/devices/MIMX8QX6/scfw_api/main/ipc_imx8qx.c.obj
 .text          0x0000000000000000        0x0 CMakeFiles/freertos_hello.elf.dir/home/ben/Toradex/LinuxDevelop/FreeRTOS/Colibri-iMX8X/SDK_2_9_0_MEK-MIMX8QX/devices/MIMX8QX6/scfw_api/svc/irq/irq_rpc_clnt.c.obj
 .data          0x0000000000000000        0x0 CMakeFiles/freertos_hello.elf.dir/home/ben/Toradex/LinuxDevelop/FreeRTOS/Colibri-iMX8X/SDK_2_9_0_MEK-MIMX8QX/devices/MIMX8QX6/scfw_api/svc/irq/irq_rpc_clnt.c.obj
 .bss           0x0000000000000000        0x0 CMakeFiles/freertos_hello.elf.dir/home/ben/Toradex/LinuxDevelop/FreeRTOS/Colibri-iMX8X/SDK_2_9_0_MEK-MIMX8QX/devices/MIMX8QX6/scfw_api/svc/irq/irq_rpc_clnt.c.obj
 .text.sc_irq_enable
                0x0000000000000000       0x34 CMakeFiles/freertos_hello.elf.dir/home/ben/Toradex/LinuxDevelop/FreeRTOS/Colibri-iMX8X/SDK_2_9_0_MEK-MIMX8QX/devices/MIMX8QX6/scfw_api/svc/irq/irq_rpc_clnt.c.obj
 .text.sc_irq_status
                0x0000000000000000       0x2c CMakeFiles/freertos_hello.elf.dir/home/ben/Toradex/LinuxDevelop/FreeRTOS/Colibri-iMX8X/SDK_2_9_0_MEK-MIMX8QX/devices/MIMX8QX6/scfw_api/svc/irq/irq_rpc_clnt.c.obj
 .comment       0x0000000000000000       0x4d CMakeFiles/freertos_hello.elf.dir/home/ben/Toradex/LinuxDevelop/FreeRTOS/Colibri-iMX8X/SDK_2_9_0_MEK-MIMX8QX/devices/MIMX8QX6/scfw_api/svc/irq/irq_rpc_clnt.c.obj
 .ARM.attributes
                0x0000000000000000       0x34 CMakeFiles/freertos_hello.elf.dir/home/ben/Toradex/LinuxDevelop/FreeRTOS/Colibri-iMX8X/SDK_2_9_0_MEK-MIMX8QX/devices/MIMX8QX6/scfw_api/svc/irq/irq_rpc_clnt.c.obj
 .text          0x0000000000000000        0x0 CMakeFiles/freertos_hello.elf.dir/home/ben/Toradex/LinuxDevelop/FreeRTOS/Colibri-iMX8X/SDK_2_9_0_MEK-MIMX8QX/devices/MIMX8QX6/scfw_api/svc/misc/misc_rpc_clnt.c.obj
 .data          0x0000000000000000        0x0 CMakeFiles/freertos_hello.elf.dir/home/ben/Toradex/LinuxDevelop/FreeRTOS/Colibri-iMX8X/SDK_2_9_0_MEK-MIMX8QX/devices/MIMX8QX6/scfw_api/svc/misc/misc_rpc_clnt.c.obj
 .bss           0x0000000000000000        0x0 CMakeFiles/freertos_hello.elf.dir/home/ben/Toradex/LinuxDevelop/FreeRTOS/Colibri-iMX8X/SDK_2_9_0_MEK-MIMX8QX/devices/MIMX8QX6/scfw_api/svc/misc/misc_rpc_clnt.c.obj
 .text.sc_misc_set_control
                0x0000000000000000       0x24 CMakeFiles/freertos_hello.elf.dir/home/ben/Toradex/LinuxDevelop/FreeRTOS/Colibri-iMX8X/SDK_2_9_0_MEK-MIMX8QX/devices/MIMX8QX6/scfw_api/svc/misc/misc_rpc_clnt.c.obj
 .text.sc_misc_get_control
                0x0000000000000000       0x2c CMakeFiles/freertos_hello.elf.dir/home/ben/Toradex/LinuxDevelop/FreeRTOS/Colibri-iMX8X/SDK_2_9_0_MEK-MIMX8QX/devices/MIMX8QX6/scfw_api/svc/misc/misc_rpc_clnt.c.obj
 .text.sc_misc_set_max_dma_group
                0x0000000000000000       0x28 CMakeFiles/freertos_hello.elf.dir/home/ben/Toradex/LinuxDevelop/FreeRTOS/Colibri-iMX8X/SDK_2_9_0_MEK-MIMX8QX/devices/MIMX8QX6/scfw_api/svc/misc/misc_rpc_clnt.c.obj
 .text.sc_misc_set_dma_group
                0x0000000000000000       0x28 CMakeFiles/freertos_hello.elf.dir/home/ben/Toradex/LinuxDevelop/FreeRTOS/Colibri-iMX8X/SDK_2_9_0_MEK-MIMX8QX/devices/MIMX8QX6/scfw_api/svc/misc/misc_rpc_clnt.c.obj
 .text.sc_misc_debug_out
                0x0000000000000000       0x20 CMakeFiles/freertos_hello.elf.dir/home/ben/Toradex/LinuxDevelop/FreeRTOS/Colibri-iMX8X/SDK_2_9_0_MEK-MIMX8QX/devices/MIMX8QX6/scfw_api/svc/misc/misc_rpc_clnt.c.obj
 .text.sc_misc_waveform_capture
                0x0000000000000000       0x28 CMakeFiles/freertos_hello.elf.dir/home/ben/Toradex/LinuxDevelop/FreeRTOS/Colibri-iMX8X/SDK_2_9_0_MEK-MIMX8QX/devices/MIMX8QX6/scfw_api/svc/misc/misc_rpc_clnt.c.obj
 .text.sc_misc_build_info
                0x0000000000000000       0x28 CMakeFiles/freertos_hello.elf.dir/home/ben/Toradex/LinuxDevelop/FreeRTOS/Colibri-iMX8X/SDK_2_9_0_MEK-MIMX8QX/devices/MIMX8QX6/scfw_api/svc/misc/misc_rpc_clnt.c.obj
 .text.sc_misc_api_ver
                0x0000000000000000       0x3c CMakeFiles/freertos_hello.elf.dir/home/ben/Toradex/LinuxDevelop/FreeRTOS/Colibri-iMX8X/SDK_2_9_0_MEK-MIMX8QX/devices/MIMX8QX6/scfw_api/svc/misc/misc_rpc_clnt.c.obj
 .text.sc_misc_unique_id
                0x0000000000000000       0x28 CMakeFiles/freertos_hello.elf.dir/home/ben/Toradex/LinuxDevelop/FreeRTOS/Colibri-iMX8X/SDK_2_9_0_MEK-MIMX8QX/devices/MIMX8QX6/scfw_api/svc/misc/misc_rpc_clnt.c.obj
 .text.sc_misc_set_ari
                0x0000000000000000       0x38 CMakeFiles/freertos_hello.elf.dir/home/ben/Toradex/LinuxDevelop/FreeRTOS/Colibri-iMX8X/SDK_2_9_0_MEK-MIMX8QX/devices/MIMX8QX6/scfw_api/svc/misc/misc_rpc_clnt.c.obj
 .text.sc_misc_boot_status
                0x0000000000000000       0x20 CMakeFiles/freertos_hello.elf.dir/home/ben/Toradex/LinuxDevelop/FreeRTOS/Colibri-iMX8X/SDK_2_9_0_MEK-MIMX8QX/devices/MIMX8QX6/scfw_api/svc/misc/misc_rpc_clnt.c.obj
 .text.sc_misc_otp_fuse_read
                0x0000000000000000       0x28 CMakeFiles/freertos_hello.elf.dir/home/ben/Toradex/LinuxDevelop/FreeRTOS/Colibri-iMX8X/SDK_2_9_0_MEK-MIMX8QX/devices/MIMX8QX6/scfw_api/svc/misc/misc_rpc_clnt.c.obj
 .text.sc_misc_otp_fuse_write
                0x0000000000000000       0x24 CMakeFiles/freertos_hello.elf.dir/home/ben/Toradex/LinuxDevelop/FreeRTOS/Colibri-iMX8X/SDK_2_9_0_MEK-MIMX8QX/devices/MIMX8QX6/scfw_api/svc/misc/misc_rpc_clnt.c.obj
 .text.sc_misc_set_temp
                0x0000000000000000       0x30 CMakeFiles/freertos_hello.elf.dir/home/ben/Toradex/LinuxDevelop/FreeRTOS/Colibri-iMX8X/SDK_2_9_0_MEK-MIMX8QX/devices/MIMX8QX6/scfw_api/svc/misc/misc_rpc_clnt.c.obj
 .text.sc_misc_get_temp
                0x0000000000000000       0x38 CMakeFiles/freertos_hello.elf.dir/home/ben/Toradex/LinuxDevelop/FreeRTOS/Colibri-iMX8X/SDK_2_9_0_MEK-MIMX8QX/devices/MIMX8QX6/scfw_api/svc/misc/misc_rpc_clnt.c.obj
 .text.sc_misc_get_boot_dev
                0x0000000000000000       0x24 CMakeFiles/freertos_hello.elf.dir/home/ben/Toradex/LinuxDevelop/FreeRTOS/Colibri-iMX8X/SDK_2_9_0_MEK-MIMX8QX/devices/MIMX8QX6/scfw_api/svc/misc/misc_rpc_clnt.c.obj
 .text.sc_misc_get_boot_type
                0x0000000000000000       0x28 CMakeFiles/freertos_hello.elf.dir/home/ben/Toradex/LinuxDevelop/FreeRTOS/Colibri-iMX8X/SDK_2_9_0_MEK-MIMX8QX/devices/MIMX8QX6/scfw_api/svc/misc/misc_rpc_clnt.c.obj
 .text.sc_misc_get_boot_container
                0x0000000000000000       0x28 CMakeFiles/freertos_hello.elf.dir/home/ben/Toradex/LinuxDevelop/FreeRTOS/Colibri-iMX8X/SDK_2_9_0_MEK-MIMX8QX/devices/MIMX8QX6/scfw_api/svc/misc/misc_rpc_clnt.c.obj
 .text.sc_misc_get_button_status
                0x0000000000000000       0x28 CMakeFiles/freertos_hello.elf.dir/home/ben/Toradex/LinuxDevelop/FreeRTOS/Colibri-iMX8X/SDK_2_9_0_MEK-MIMX8QX/devices/MIMX8QX6/scfw_api/svc/misc/misc_rpc_clnt.c.obj
 .text.sc_misc_rompatch_checksum
                0x0000000000000000       0x24 CMakeFiles/freertos_hello.elf.dir/home/ben/Toradex/LinuxDevelop/FreeRTOS/Colibri-iMX8X/SDK_2_9_0_MEK-MIMX8QX/devices/MIMX8QX6/scfw_api/svc/misc/misc_rpc_clnt.c.obj
 .text.sc_misc_board_ioctl
                0x0000000000000000       0x3c CMakeFiles/freertos_hello.elf.dir/home/ben/Toradex/LinuxDevelop/FreeRTOS/Colibri-iMX8X/SDK_2_9_0_MEK-MIMX8QX/devices/MIMX8QX6/scfw_api/svc/misc/misc_rpc_clnt.c.obj
 .text          0x0000000000000000        0x0 CMakeFiles/freertos_hello.elf.dir/home/ben/Toradex/LinuxDevelop/FreeRTOS/Colibri-iMX8X/SDK_2_9_0_MEK-MIMX8QX/devices/MIMX8QX6/scfw_api/svc/pad/pad_rpc_clnt.c.obj
 .data          0x0000000000000000        0x0 CMakeFiles/freertos_hello.elf.dir/home/ben/Toradex/LinuxDevelop/FreeRTOS/Colibri-iMX8X/SDK_2_9_0_MEK-MIMX8QX/devices/MIMX8QX6/scfw_api/svc/pad/pad_rpc_clnt.c.obj
 .bss           0x0000000000000000        0x0 CMakeFiles/freertos_hello.elf.dir/home/ben/Toradex/LinuxDevelop/FreeRTOS/Colibri-iMX8X/SDK_2_9_0_MEK-MIMX8QX/devices/MIMX8QX6/scfw_api/svc/pad/pad_rpc_clnt.c.obj
 .text.sc_pad_set_mux
                0x0000000000000000       0x30 CMakeFiles/freertos_hello.elf.dir/home/ben/Toradex/LinuxDevelop/FreeRTOS/Colibri-iMX8X/SDK_2_9_0_MEK-MIMX8QX/devices/MIMX8QX6/scfw_api/svc/pad/pad_rpc_clnt.c.obj
 .text.sc_pad_get_mux
                0x0000000000000000       0x40 CMakeFiles/freertos_hello.elf.dir/home/ben/Toradex/LinuxDevelop/FreeRTOS/Colibri-iMX8X/SDK_2_9_0_MEK-MIMX8QX/devices/MIMX8QX6/scfw_api/svc/pad/pad_rpc_clnt.c.obj
 .text.sc_pad_set_gp
                0x0000000000000000       0x24 CMakeFiles/freertos_hello.elf.dir/home/ben/Toradex/LinuxDevelop/FreeRTOS/Colibri-iMX8X/SDK_2_9_0_MEK-MIMX8QX/devices/MIMX8QX6/scfw_api/svc/pad/pad_rpc_clnt.c.obj
 .text.sc_pad_get_gp
                0x0000000000000000       0x28 CMakeFiles/freertos_hello.elf.dir/home/ben/Toradex/LinuxDevelop/FreeRTOS/Colibri-iMX8X/SDK_2_9_0_MEK-MIMX8QX/devices/MIMX8QX6/scfw_api/svc/pad/pad_rpc_clnt.c.obj
 .text.sc_pad_set_wakeup
                0x0000000000000000       0x28 CMakeFiles/freertos_hello.elf.dir/home/ben/Toradex/LinuxDevelop/FreeRTOS/Colibri-iMX8X/SDK_2_9_0_MEK-MIMX8QX/devices/MIMX8QX6/scfw_api/svc/pad/pad_rpc_clnt.c.obj
 .text.sc_pad_get_wakeup
                0x0000000000000000       0x2c CMakeFiles/freertos_hello.elf.dir/home/ben/Toradex/LinuxDevelop/FreeRTOS/Colibri-iMX8X/SDK_2_9_0_MEK-MIMX8QX/devices/MIMX8QX6/scfw_api/svc/pad/pad_rpc_clnt.c.obj
 .text.sc_pad_get_all
                0x0000000000000000       0x5c CMakeFiles/freertos_hello.elf.dir/home/ben/Toradex/LinuxDevelop/FreeRTOS/Colibri-iMX8X/SDK_2_9_0_MEK-MIMX8QX/devices/MIMX8QX6/scfw_api/svc/pad/pad_rpc_clnt.c.obj
 .text.sc_pad_set
                0x0000000000000000       0x24 CMakeFiles/freertos_hello.elf.dir/home/ben/Toradex/LinuxDevelop/FreeRTOS/Colibri-iMX8X/SDK_2_9_0_MEK-MIMX8QX/devices/MIMX8QX6/scfw_api/svc/pad/pad_rpc_clnt.c.obj
 .text.sc_pad_get
                0x0000000000000000       0x28 CMakeFiles/freertos_hello.elf.dir/home/ben/Toradex/LinuxDevelop/FreeRTOS/Colibri-iMX8X/SDK_2_9_0_MEK-MIMX8QX/devices/MIMX8QX6/scfw_api/svc/pad/pad_rpc_clnt.c.obj
 .text.sc_pad_set_gp_28fdsoi
                0x0000000000000000       0x28 CMakeFiles/freertos_hello.elf.dir/home/ben/Toradex/LinuxDevelop/FreeRTOS/Colibri-iMX8X/SDK_2_9_0_MEK-MIMX8QX/devices/MIMX8QX6/scfw_api/svc/pad/pad_rpc_clnt.c.obj
 .text.sc_pad_get_gp_28fdsoi
                0x0000000000000000       0x34 CMakeFiles/freertos_hello.elf.dir/home/ben/Toradex/LinuxDevelop/FreeRTOS/Colibri-iMX8X/SDK_2_9_0_MEK-MIMX8QX/devices/MIMX8QX6/scfw_api/svc/pad/pad_rpc_clnt.c.obj
 .text.sc_pad_set_gp_28fdsoi_hsic
                0x0000000000000000       0x54 CMakeFiles/freertos_hello.elf.dir/home/ben/Toradex/LinuxDevelop/FreeRTOS/Colibri-iMX8X/SDK_2_9_0_MEK-MIMX8QX/devices/MIMX8QX6/scfw_api/svc/pad/pad_rpc_clnt.c.obj
 .text.sc_pad_get_gp_28fdsoi_hsic
                0x0000000000000000       0x70 CMakeFiles/freertos_hello.elf.dir/home/ben/Toradex/LinuxDevelop/FreeRTOS/Colibri-iMX8X/SDK_2_9_0_MEK-MIMX8QX/devices/MIMX8QX6/scfw_api/svc/pad/pad_rpc_clnt.c.obj
 .text.sc_pad_set_gp_28fdsoi_comp
                0x0000000000000000       0x5c CMakeFiles/freertos_hello.elf.dir/home/ben/Toradex/LinuxDevelop/FreeRTOS/Colibri-iMX8X/SDK_2_9_0_MEK-MIMX8QX/devices/MIMX8QX6/scfw_api/svc/pad/pad_rpc_clnt.c.obj
 .text.sc_pad_get_gp_28fdsoi_comp
                0x0000000000000000       0xa4 CMakeFiles/freertos_hello.elf.dir/home/ben/Toradex/LinuxDevelop/FreeRTOS/Colibri-iMX8X/SDK_2_9_0_MEK-MIMX8QX/devices/MIMX8QX6/scfw_api/svc/pad/pad_rpc_clnt.c.obj
 .text          0x0000000000000000        0x0 CMakeFiles/freertos_hello.elf.dir/home/ben/Toradex/LinuxDevelop/FreeRTOS/Colibri-iMX8X/SDK_2_9_0_MEK-MIMX8QX/devices/MIMX8QX6/scfw_api/svc/pm/pm_rpc_clnt.c.obj
 .data          0x0000000000000000        0x0 CMakeFiles/freertos_hello.elf.dir/home/ben/Toradex/LinuxDevelop/FreeRTOS/Colibri-iMX8X/SDK_2_9_0_MEK-MIMX8QX/devices/MIMX8QX6/scfw_api/svc/pm/pm_rpc_clnt.c.obj
 .bss           0x0000000000000000        0x0 CMakeFiles/freertos_hello.elf.dir/home/ben/Toradex/LinuxDevelop/FreeRTOS/Colibri-iMX8X/SDK_2_9_0_MEK-MIMX8QX/devices/MIMX8QX6/scfw_api/svc/pm/pm_rpc_clnt.c.obj
 .text.sc_pm_set_sys_power_mode
                0x0000000000000000       0x24 CMakeFiles/freertos_hello.elf.dir/home/ben/Toradex/LinuxDevelop/FreeRTOS/Colibri-iMX8X/SDK_2_9_0_MEK-MIMX8QX/devices/MIMX8QX6/scfw_api/svc/pm/pm_rpc_clnt.c.obj
 .text.sc_pm_set_partition_power_mode
                0x0000000000000000       0x28 CMakeFiles/freertos_hello.elf.dir/home/ben/Toradex/LinuxDevelop/FreeRTOS/Colibri-iMX8X/SDK_2_9_0_MEK-MIMX8QX/devices/MIMX8QX6/scfw_api/svc/pm/pm_rpc_clnt.c.obj
 .text.sc_pm_get_sys_power_mode
                0x0000000000000000       0x2c CMakeFiles/freertos_hello.elf.dir/home/ben/Toradex/LinuxDevelop/FreeRTOS/Colibri-iMX8X/SDK_2_9_0_MEK-MIMX8QX/devices/MIMX8QX6/scfw_api/svc/pm/pm_rpc_clnt.c.obj
 .text.sc_pm_partition_wake
                0x0000000000000000       0x24 CMakeFiles/freertos_hello.elf.dir/home/ben/Toradex/LinuxDevelop/FreeRTOS/Colibri-iMX8X/SDK_2_9_0_MEK-MIMX8QX/devices/MIMX8QX6/scfw_api/svc/pm/pm_rpc_clnt.c.obj
 .text.sc_pm_set_resource_power_mode_all
                0x0000000000000000       0x28 CMakeFiles/freertos_hello.elf.dir/home/ben/Toradex/LinuxDevelop/FreeRTOS/Colibri-iMX8X/SDK_2_9_0_MEK-MIMX8QX/devices/MIMX8QX6/scfw_api/svc/pm/pm_rpc_clnt.c.obj
 .text.sc_pm_get_resource_power_mode
                0x0000000000000000       0x2c CMakeFiles/freertos_hello.elf.dir/home/ben/Toradex/LinuxDevelop/FreeRTOS/Colibri-iMX8X/SDK_2_9_0_MEK-MIMX8QX/devices/MIMX8QX6/scfw_api/svc/pm/pm_rpc_clnt.c.obj
 .text.sc_pm_req_low_power_mode
                0x0000000000000000       0x28 CMakeFiles/freertos_hello.elf.dir/home/ben/Toradex/LinuxDevelop/FreeRTOS/Colibri-iMX8X/SDK_2_9_0_MEK-MIMX8QX/devices/MIMX8QX6/scfw_api/svc/pm/pm_rpc_clnt.c.obj
 .text.sc_pm_req_cpu_low_power_mode
                0x0000000000000000       0x28 CMakeFiles/freertos_hello.elf.dir/home/ben/Toradex/LinuxDevelop/FreeRTOS/Colibri-iMX8X/SDK_2_9_0_MEK-MIMX8QX/devices/MIMX8QX6/scfw_api/svc/pm/pm_rpc_clnt.c.obj
 .text.sc_pm_set_cpu_resume_addr
                0x0000000000000000       0x24 CMakeFiles/freertos_hello.elf.dir/home/ben/Toradex/LinuxDevelop/FreeRTOS/Colibri-iMX8X/SDK_2_9_0_MEK-MIMX8QX/devices/MIMX8QX6/scfw_api/svc/pm/pm_rpc_clnt.c.obj
 .text.sc_pm_set_cpu_resume
                0x0000000000000000       0x34 CMakeFiles/freertos_hello.elf.dir/home/ben/Toradex/LinuxDevelop/FreeRTOS/Colibri-iMX8X/SDK_2_9_0_MEK-MIMX8QX/devices/MIMX8QX6/scfw_api/svc/pm/pm_rpc_clnt.c.obj
 .text.sc_pm_req_sys_if_power_mode
                0x0000000000000000       0x30 CMakeFiles/freertos_hello.elf.dir/home/ben/Toradex/LinuxDevelop/FreeRTOS/Colibri-iMX8X/SDK_2_9_0_MEK-MIMX8QX/devices/MIMX8QX6/scfw_api/svc/pm/pm_rpc_clnt.c.obj
 .text.sc_pm_set_clock_parent
                0x0000000000000000       0x28 CMakeFiles/freertos_hello.elf.dir/home/ben/Toradex/LinuxDevelop/FreeRTOS/Colibri-iMX8X/SDK_2_9_0_MEK-MIMX8QX/devices/MIMX8QX6/scfw_api/svc/pm/pm_rpc_clnt.c.obj
 .text.sc_pm_get_clock_parent
                0x0000000000000000       0x30 CMakeFiles/freertos_hello.elf.dir/home/ben/Toradex/LinuxDevelop/FreeRTOS/Colibri-iMX8X/SDK_2_9_0_MEK-MIMX8QX/devices/MIMX8QX6/scfw_api/svc/pm/pm_rpc_clnt.c.obj
 .text.sc_pm_reset
                0x0000000000000000       0x24 CMakeFiles/freertos_hello.elf.dir/home/ben/Toradex/LinuxDevelop/FreeRTOS/Colibri-iMX8X/SDK_2_9_0_MEK-MIMX8QX/devices/MIMX8QX6/scfw_api/svc/pm/pm_rpc_clnt.c.obj
 .text.sc_pm_reset_reason
                0x0000000000000000       0x28 CMakeFiles/freertos_hello.elf.dir/home/ben/Toradex/LinuxDevelop/FreeRTOS/Colibri-iMX8X/SDK_2_9_0_MEK-MIMX8QX/devices/MIMX8QX6/scfw_api/svc/pm/pm_rpc_clnt.c.obj
 .text.sc_pm_get_reset_part
                0x0000000000000000       0x28 CMakeFiles/freertos_hello.elf.dir/home/ben/Toradex/LinuxDevelop/FreeRTOS/Colibri-iMX8X/SDK_2_9_0_MEK-MIMX8QX/devices/MIMX8QX6/scfw_api/svc/pm/pm_rpc_clnt.c.obj
 .text.sc_pm_boot
                0x0000000000000000       0x40 CMakeFiles/freertos_hello.elf.dir/home/ben/Toradex/LinuxDevelop/FreeRTOS/Colibri-iMX8X/SDK_2_9_0_MEK-MIMX8QX/devices/MIMX8QX6/scfw_api/svc/pm/pm_rpc_clnt.c.obj
 .text.sc_pm_set_boot_parm
                0x0000000000000000       0x34 CMakeFiles/freertos_hello.elf.dir/home/ben/Toradex/LinuxDevelop/FreeRTOS/Colibri-iMX8X/SDK_2_9_0_MEK-MIMX8QX/devices/MIMX8QX6/scfw_api/svc/pm/pm_rpc_clnt.c.obj
 .text.sc_pm_reboot
                0x0000000000000000       0x20 CMakeFiles/freertos_hello.elf.dir/home/ben/Toradex/LinuxDevelop/FreeRTOS/Colibri-iMX8X/SDK_2_9_0_MEK-MIMX8QX/devices/MIMX8QX6/scfw_api/svc/pm/pm_rpc_clnt.c.obj
 .text.sc_pm_reboot_partition
                0x0000000000000000       0x28 CMakeFiles/freertos_hello.elf.dir/home/ben/Toradex/LinuxDevelop/FreeRTOS/Colibri-iMX8X/SDK_2_9_0_MEK-MIMX8QX/devices/MIMX8QX6/scfw_api/svc/pm/pm_rpc_clnt.c.obj
 .text.sc_pm_reboot_continue
                0x0000000000000000       0x24 CMakeFiles/freertos_hello.elf.dir/home/ben/Toradex/LinuxDevelop/FreeRTOS/Colibri-iMX8X/SDK_2_9_0_MEK-MIMX8QX/devices/MIMX8QX6/scfw_api/svc/pm/pm_rpc_clnt.c.obj
 .text.sc_pm_cpu_start
                0x0000000000000000       0x34 CMakeFiles/freertos_hello.elf.dir/home/ben/Toradex/LinuxDevelop/FreeRTOS/Colibri-iMX8X/SDK_2_9_0_MEK-MIMX8QX/devices/MIMX8QX6/scfw_api/svc/pm/pm_rpc_clnt.c.obj
 .text.sc_pm_cpu_reset
                0x0000000000000000       0x20 CMakeFiles/freertos_hello.elf.dir/home/ben/Toradex/LinuxDevelop/FreeRTOS/Colibri-iMX8X/SDK_2_9_0_MEK-MIMX8QX/devices/MIMX8QX6/scfw_api/svc/pm/pm_rpc_clnt.c.obj
 .text.sc_pm_resource_reset
                0x0000000000000000       0x24 CMakeFiles/freertos_hello.elf.dir/home/ben/Toradex/LinuxDevelop/FreeRTOS/Colibri-iMX8X/SDK_2_9_0_MEK-MIMX8QX/devices/MIMX8QX6/scfw_api/svc/pm/pm_rpc_clnt.c.obj
 .text.sc_pm_is_partition_started
                0x0000000000000000       0x28 CMakeFiles/freertos_hello.elf.dir/home/ben/Toradex/LinuxDevelop/FreeRTOS/Colibri-iMX8X/SDK_2_9_0_MEK-MIMX8QX/devices/MIMX8QX6/scfw_api/svc/pm/pm_rpc_clnt.c.obj
 .text          0x0000000000000000        0x0 CMakeFiles/freertos_hello.elf.dir/home/ben/Toradex/LinuxDevelop/FreeRTOS/Colibri-iMX8X/SDK_2_9_0_MEK-MIMX8QX/devices/MIMX8QX6/scfw_api/svc/rm/rm_rpc_clnt.c.obj
 .data          0x0000000000000000        0x0 CMakeFiles/freertos_hello.elf.dir/home/ben/Toradex/LinuxDevelop/FreeRTOS/Colibri-iMX8X/SDK_2_9_0_MEK-MIMX8QX/devices/MIMX8QX6/scfw_api/svc/rm/rm_rpc_clnt.c.obj
 .bss           0x0000000000000000        0x0 CMakeFiles/freertos_hello.elf.dir/home/ben/Toradex/LinuxDevelop/FreeRTOS/Colibri-iMX8X/SDK_2_9_0_MEK-MIMX8QX/devices/MIMX8QX6/scfw_api/svc/rm/rm_rpc_clnt.c.obj
 .text.sc_rm_partition_alloc
                0x0000000000000000       0x64 CMakeFiles/freertos_hello.elf.dir/home/ben/Toradex/LinuxDevelop/FreeRTOS/Colibri-iMX8X/SDK_2_9_0_MEK-MIMX8QX/devices/MIMX8QX6/scfw_api/svc/rm/rm_rpc_clnt.c.obj
 .text.sc_rm_set_confidential
                0x0000000000000000       0x2c CMakeFiles/freertos_hello.elf.dir/home/ben/Toradex/LinuxDevelop/FreeRTOS/Colibri-iMX8X/SDK_2_9_0_MEK-MIMX8QX/devices/MIMX8QX6/scfw_api/svc/rm/rm_rpc_clnt.c.obj
 .text.sc_rm_partition_free
                0x0000000000000000       0x24 CMakeFiles/freertos_hello.elf.dir/home/ben/Toradex/LinuxDevelop/FreeRTOS/Colibri-iMX8X/SDK_2_9_0_MEK-MIMX8QX/devices/MIMX8QX6/scfw_api/svc/rm/rm_rpc_clnt.c.obj
 .text.sc_rm_get_did
                0x0000000000000000       0x20 CMakeFiles/freertos_hello.elf.dir/home/ben/Toradex/LinuxDevelop/FreeRTOS/Colibri-iMX8X/SDK_2_9_0_MEK-MIMX8QX/devices/MIMX8QX6/scfw_api/svc/rm/rm_rpc_clnt.c.obj
 .text.sc_rm_partition_static
                0x0000000000000000       0x28 CMakeFiles/freertos_hello.elf.dir/home/ben/Toradex/LinuxDevelop/FreeRTOS/Colibri-iMX8X/SDK_2_9_0_MEK-MIMX8QX/devices/MIMX8QX6/scfw_api/svc/rm/rm_rpc_clnt.c.obj
 .text.sc_rm_partition_lock
                0x0000000000000000       0x24 CMakeFiles/freertos_hello.elf.dir/home/ben/Toradex/LinuxDevelop/FreeRTOS/Colibri-iMX8X/SDK_2_9_0_MEK-MIMX8QX/devices/MIMX8QX6/scfw_api/svc/rm/rm_rpc_clnt.c.obj
 .text.sc_rm_get_partition
                0x0000000000000000       0x28 CMakeFiles/freertos_hello.elf.dir/home/ben/Toradex/LinuxDevelop/FreeRTOS/Colibri-iMX8X/SDK_2_9_0_MEK-MIMX8QX/devices/MIMX8QX6/scfw_api/svc/rm/rm_rpc_clnt.c.obj
 .text.sc_rm_set_parent
                0x0000000000000000       0x28 CMakeFiles/freertos_hello.elf.dir/home/ben/Toradex/LinuxDevelop/FreeRTOS/Colibri-iMX8X/SDK_2_9_0_MEK-MIMX8QX/devices/MIMX8QX6/scfw_api/svc/rm/rm_rpc_clnt.c.obj
 .text.sc_rm_move_all
                0x0000000000000000       0x3c CMakeFiles/freertos_hello.elf.dir/home/ben/Toradex/LinuxDevelop/FreeRTOS/Colibri-iMX8X/SDK_2_9_0_MEK-MIMX8QX/devices/MIMX8QX6/scfw_api/svc/rm/rm_rpc_clnt.c.obj
 .text.sc_rm_assign_resource
                0x0000000000000000       0x28 CMakeFiles/freertos_hello.elf.dir/home/ben/Toradex/LinuxDevelop/FreeRTOS/Colibri-iMX8X/SDK_2_9_0_MEK-MIMX8QX/devices/MIMX8QX6/scfw_api/svc/rm/rm_rpc_clnt.c.obj
 .text.sc_rm_set_resource_movable
                0x0000000000000000       0x30 CMakeFiles/freertos_hello.elf.dir/home/ben/Toradex/LinuxDevelop/FreeRTOS/Colibri-iMX8X/SDK_2_9_0_MEK-MIMX8QX/devices/MIMX8QX6/scfw_api/svc/rm/rm_rpc_clnt.c.obj
 .text.sc_rm_set_subsys_rsrc_movable
                0x0000000000000000       0x2c CMakeFiles/freertos_hello.elf.dir/home/ben/Toradex/LinuxDevelop/FreeRTOS/Colibri-iMX8X/SDK_2_9_0_MEK-MIMX8QX/devices/MIMX8QX6/scfw_api/svc/rm/rm_rpc_clnt.c.obj
 .text.sc_rm_set_master_attributes
                0x0000000000000000       0x38 CMakeFiles/freertos_hello.elf.dir/home/ben/Toradex/LinuxDevelop/FreeRTOS/Colibri-iMX8X/SDK_2_9_0_MEK-MIMX8QX/devices/MIMX8QX6/scfw_api/svc/rm/rm_rpc_clnt.c.obj
 .text.sc_rm_set_master_sid
                0x0000000000000000       0x28 CMakeFiles/freertos_hello.elf.dir/home/ben/Toradex/LinuxDevelop/FreeRTOS/Colibri-iMX8X/SDK_2_9_0_MEK-MIMX8QX/devices/MIMX8QX6/scfw_api/svc/rm/rm_rpc_clnt.c.obj
 .text.sc_rm_set_peripheral_permissions
                0x0000000000000000       0x28 CMakeFiles/freertos_hello.elf.dir/home/ben/Toradex/LinuxDevelop/FreeRTOS/Colibri-iMX8X/SDK_2_9_0_MEK-MIMX8QX/devices/MIMX8QX6/scfw_api/svc/rm/rm_rpc_clnt.c.obj
 .text.sc_rm_is_resource_owned
                0x0000000000000000       0x28 CMakeFiles/freertos_hello.elf.dir/home/ben/Toradex/LinuxDevelop/FreeRTOS/Colibri-iMX8X/SDK_2_9_0_MEK-MIMX8QX/devices/MIMX8QX6/scfw_api/svc/rm/rm_rpc_clnt.c.obj
 .text.sc_rm_get_resource_owner
                0x0000000000000000       0x2c CMakeFiles/freertos_hello.elf.dir/home/ben/Toradex/LinuxDevelop/FreeRTOS/Colibri-iMX8X/SDK_2_9_0_MEK-MIMX8QX/devices/MIMX8QX6/scfw_api/svc/rm/rm_rpc_clnt.c.obj
 .text.sc_rm_is_resource_master
                0x0000000000000000       0x28 CMakeFiles/freertos_hello.elf.dir/home/ben/Toradex/LinuxDevelop/FreeRTOS/Colibri-iMX8X/SDK_2_9_0_MEK-MIMX8QX/devices/MIMX8QX6/scfw_api/svc/rm/rm_rpc_clnt.c.obj
 .text.sc_rm_is_resource_peripheral
                0x0000000000000000       0x28 CMakeFiles/freertos_hello.elf.dir/home/ben/Toradex/LinuxDevelop/FreeRTOS/Colibri-iMX8X/SDK_2_9_0_MEK-MIMX8QX/devices/MIMX8QX6/scfw_api/svc/rm/rm_rpc_clnt.c.obj
 .text.sc_rm_get_resource_info
                0x0000000000000000       0x2c CMakeFiles/freertos_hello.elf.dir/home/ben/Toradex/LinuxDevelop/FreeRTOS/Colibri-iMX8X/SDK_2_9_0_MEK-MIMX8QX/devices/MIMX8QX6/scfw_api/svc/rm/rm_rpc_clnt.c.obj
 .text.sc_rm_memreg_alloc
                0x0000000000000000       0x34 CMakeFiles/freertos_hello.elf.dir/home/ben/Toradex/LinuxDevelop/FreeRTOS/Colibri-iMX8X/SDK_2_9_0_MEK-MIMX8QX/devices/MIMX8QX6/scfw_api/svc/rm/rm_rpc_clnt.c.obj
 .text.sc_rm_memreg_split
                0x0000000000000000       0x3c CMakeFiles/freertos_hello.elf.dir/home/ben/Toradex/LinuxDevelop/FreeRTOS/Colibri-iMX8X/SDK_2_9_0_MEK-MIMX8QX/devices/MIMX8QX6/scfw_api/svc/rm/rm_rpc_clnt.c.obj
 .text.sc_rm_memreg_frag
                0x0000000000000000       0x34 CMakeFiles/freertos_hello.elf.dir/home/ben/Toradex/LinuxDevelop/FreeRTOS/Colibri-iMX8X/SDK_2_9_0_MEK-MIMX8QX/devices/MIMX8QX6/scfw_api/svc/rm/rm_rpc_clnt.c.obj
 .text.sc_rm_memreg_free
                0x0000000000000000       0x24 CMakeFiles/freertos_hello.elf.dir/home/ben/Toradex/LinuxDevelop/FreeRTOS/Colibri-iMX8X/SDK_2_9_0_MEK-MIMX8QX/devices/MIMX8QX6/scfw_api/svc/rm/rm_rpc_clnt.c.obj
 .text.sc_rm_find_memreg
                0x0000000000000000       0x34 CMakeFiles/freertos_hello.elf.dir/home/ben/Toradex/LinuxDevelop/FreeRTOS/Colibri-iMX8X/SDK_2_9_0_MEK-MIMX8QX/devices/MIMX8QX6/scfw_api/svc/rm/rm_rpc_clnt.c.obj
 .text.sc_rm_assign_memreg
                0x0000000000000000       0x28 CMakeFiles/freertos_hello.elf.dir/home/ben/Toradex/LinuxDevelop/FreeRTOS/Colibri-iMX8X/SDK_2_9_0_MEK-MIMX8QX/devices/MIMX8QX6/scfw_api/svc/rm/rm_rpc_clnt.c.obj
 .text.sc_rm_set_memreg_permissions
                0x0000000000000000       0x28 CMakeFiles/freertos_hello.elf.dir/home/ben/Toradex/LinuxDevelop/FreeRTOS/Colibri-iMX8X/SDK_2_9_0_MEK-MIMX8QX/devices/MIMX8QX6/scfw_api/svc/rm/rm_rpc_clnt.c.obj
 .text.sc_rm_is_memreg_owned
                0x0000000000000000       0x28 CMakeFiles/freertos_hello.elf.dir/home/ben/Toradex/LinuxDevelop/FreeRTOS/Colibri-iMX8X/SDK_2_9_0_MEK-MIMX8QX/devices/MIMX8QX6/scfw_api/svc/rm/rm_rpc_clnt.c.obj
 .text.sc_rm_get_memreg_info
                0x0000000000000000       0x38 CMakeFiles/freertos_hello.elf.dir/home/ben/Toradex/LinuxDevelop/FreeRTOS/Colibri-iMX8X/SDK_2_9_0_MEK-MIMX8QX/devices/MIMX8QX6/scfw_api/svc/rm/rm_rpc_clnt.c.obj
 .text.sc_rm_assign_pad
                0x0000000000000000       0x28 CMakeFiles/freertos_hello.elf.dir/home/ben/Toradex/LinuxDevelop/FreeRTOS/Colibri-iMX8X/SDK_2_9_0_MEK-MIMX8QX/devices/MIMX8QX6/scfw_api/svc/rm/rm_rpc_clnt.c.obj
 .text.sc_rm_set_pad_movable
                0x0000000000000000       0x30 CMakeFiles/freertos_hello.elf.dir/home/ben/Toradex/LinuxDevelop/FreeRTOS/Colibri-iMX8X/SDK_2_9_0_MEK-MIMX8QX/devices/MIMX8QX6/scfw_api/svc/rm/rm_rpc_clnt.c.obj
 .text.sc_rm_is_pad_owned
                0x0000000000000000       0x28 CMakeFiles/freertos_hello.elf.dir/home/ben/Toradex/LinuxDevelop/FreeRTOS/Colibri-iMX8X/SDK_2_9_0_MEK-MIMX8QX/devices/MIMX8QX6/scfw_api/svc/rm/rm_rpc_clnt.c.obj
 .text.sc_rm_dump
                0x0000000000000000       0x1c CMakeFiles/freertos_hello.elf.dir/home/ben/Toradex/LinuxDevelop/FreeRTOS/Colibri-iMX8X/SDK_2_9_0_MEK-MIMX8QX/devices/MIMX8QX6/scfw_api/svc/rm/rm_rpc_clnt.c.obj
 .comment       0x0000000000000000       0x4d CMakeFiles/freertos_hello.elf.dir/home/ben/Toradex/LinuxDevelop/FreeRTOS/Colibri-iMX8X/SDK_2_9_0_MEK-MIMX8QX/devices/MIMX8QX6/scfw_api/svc/rm/rm_rpc_clnt.c.obj
 .ARM.attributes
                0x0000000000000000       0x34 CMakeFiles/freertos_hello.elf.dir/home/ben/Toradex/LinuxDevelop/FreeRTOS/Colibri-iMX8X/SDK_2_9_0_MEK-MIMX8QX/devices/MIMX8QX6/scfw_api/svc/rm/rm_rpc_clnt.c.obj
 .text          0x0000000000000000        0x0 CMakeFiles/freertos_hello.elf.dir/home/ben/Toradex/LinuxDevelop/FreeRTOS/Colibri-iMX8X/SDK_2_9_0_MEK-MIMX8QX/devices/MIMX8QX6/scfw_api/svc/seco/seco_rpc_clnt.c.obj
 .data          0x0000000000000000        0x0 CMakeFiles/freertos_hello.elf.dir/home/ben/Toradex/LinuxDevelop/FreeRTOS/Colibri-iMX8X/SDK_2_9_0_MEK-MIMX8QX/devices/MIMX8QX6/scfw_api/svc/seco/seco_rpc_clnt.c.obj
 .bss           0x0000000000000000        0x0 CMakeFiles/freertos_hello.elf.dir/home/ben/Toradex/LinuxDevelop/FreeRTOS/Colibri-iMX8X/SDK_2_9_0_MEK-MIMX8QX/devices/MIMX8QX6/scfw_api/svc/seco/seco_rpc_clnt.c.obj
 .text.sc_seco_image_load
                0x0000000000000000       0x3c CMakeFiles/freertos_hello.elf.dir/home/ben/Toradex/LinuxDevelop/FreeRTOS/Colibri-iMX8X/SDK_2_9_0_MEK-MIMX8QX/devices/MIMX8QX6/scfw_api/svc/seco/seco_rpc_clnt.c.obj
 .text.sc_seco_authenticate
                0x0000000000000000       0x24 CMakeFiles/freertos_hello.elf.dir/home/ben/Toradex/LinuxDevelop/FreeRTOS/Colibri-iMX8X/SDK_2_9_0_MEK-MIMX8QX/devices/MIMX8QX6/scfw_api/svc/seco/seco_rpc_clnt.c.obj
 .text.sc_seco_enh_authenticate
                0x0000000000000000       0x2c CMakeFiles/freertos_hello.elf.dir/home/ben/Toradex/LinuxDevelop/FreeRTOS/Colibri-iMX8X/SDK_2_9_0_MEK-MIMX8QX/devices/MIMX8QX6/scfw_api/svc/seco/seco_rpc_clnt.c.obj
 .text.sc_seco_forward_lifecycle
                0x0000000000000000       0x20 CMakeFiles/freertos_hello.elf.dir/home/ben/Toradex/LinuxDevelop/FreeRTOS/Colibri-iMX8X/SDK_2_9_0_MEK-MIMX8QX/devices/MIMX8QX6/scfw_api/svc/seco/seco_rpc_clnt.c.obj
 .text.sc_seco_return_lifecycle
                0x0000000000000000       0x24 CMakeFiles/freertos_hello.elf.dir/home/ben/Toradex/LinuxDevelop/FreeRTOS/Colibri-iMX8X/SDK_2_9_0_MEK-MIMX8QX/devices/MIMX8QX6/scfw_api/svc/seco/seco_rpc_clnt.c.obj
 .text.sc_seco_commit
                0x0000000000000000       0x28 CMakeFiles/freertos_hello.elf.dir/home/ben/Toradex/LinuxDevelop/FreeRTOS/Colibri-iMX8X/SDK_2_9_0_MEK-MIMX8QX/devices/MIMX8QX6/scfw_api/svc/seco/seco_rpc_clnt.c.obj
 .text.sc_seco_attest_mode
                0x0000000000000000       0x20 CMakeFiles/freertos_hello.elf.dir/home/ben/Toradex/LinuxDevelop/FreeRTOS/Colibri-iMX8X/SDK_2_9_0_MEK-MIMX8QX/devices/MIMX8QX6/scfw_api/svc/seco/seco_rpc_clnt.c.obj
 .text.sc_seco_attest
                0x0000000000000000       0x24 CMakeFiles/freertos_hello.elf.dir/home/ben/Toradex/LinuxDevelop/FreeRTOS/Colibri-iMX8X/SDK_2_9_0_MEK-MIMX8QX/devices/MIMX8QX6/scfw_api/svc/seco/seco_rpc_clnt.c.obj
 .text.sc_seco_get_attest_pkey
                0x0000000000000000       0x24 CMakeFiles/freertos_hello.elf.dir/home/ben/Toradex/LinuxDevelop/FreeRTOS/Colibri-iMX8X/SDK_2_9_0_MEK-MIMX8QX/devices/MIMX8QX6/scfw_api/svc/seco/seco_rpc_clnt.c.obj
 .text.sc_seco_get_attest_sign
                0x0000000000000000       0x24 CMakeFiles/freertos_hello.elf.dir/home/ben/Toradex/LinuxDevelop/FreeRTOS/Colibri-iMX8X/SDK_2_9_0_MEK-MIMX8QX/devices/MIMX8QX6/scfw_api/svc/seco/seco_rpc_clnt.c.obj
 .text.sc_seco_attest_verify
                0x0000000000000000       0x24 CMakeFiles/freertos_hello.elf.dir/home/ben/Toradex/LinuxDevelop/FreeRTOS/Colibri-iMX8X/SDK_2_9_0_MEK-MIMX8QX/devices/MIMX8QX6/scfw_api/svc/seco/seco_rpc_clnt.c.obj
 .text.sc_seco_gen_key_blob
                0x0000000000000000       0x34 CMakeFiles/freertos_hello.elf.dir/home/ben/Toradex/LinuxDevelop/FreeRTOS/Colibri-iMX8X/SDK_2_9_0_MEK-MIMX8QX/devices/MIMX8QX6/scfw_api/svc/seco/seco_rpc_clnt.c.obj
 .text.sc_seco_load_key
                0x0000000000000000       0x24 CMakeFiles/freertos_hello.elf.dir/home/ben/Toradex/LinuxDevelop/FreeRTOS/Colibri-iMX8X/SDK_2_9_0_MEK-MIMX8QX/devices/MIMX8QX6/scfw_api/svc/seco/seco_rpc_clnt.c.obj
 .text.sc_seco_get_mp_key
                0x0000000000000000       0x2c CMakeFiles/freertos_hello.elf.dir/home/ben/Toradex/LinuxDevelop/FreeRTOS/Colibri-iMX8X/SDK_2_9_0_MEK-MIMX8QX/devices/MIMX8QX6/scfw_api/svc/seco/seco_rpc_clnt.c.obj
 .text.sc_seco_update_mpmr
                0x0000000000000000       0x34 CMakeFiles/freertos_hello.elf.dir/home/ben/Toradex/LinuxDevelop/FreeRTOS/Colibri-iMX8X/SDK_2_9_0_MEK-MIMX8QX/devices/MIMX8QX6/scfw_api/svc/seco/seco_rpc_clnt.c.obj
 .text.sc_seco_get_mp_sign
                0x0000000000000000       0x3c CMakeFiles/freertos_hello.elf.dir/home/ben/Toradex/LinuxDevelop/FreeRTOS/Colibri-iMX8X/SDK_2_9_0_MEK-MIMX8QX/devices/MIMX8QX6/scfw_api/svc/seco/seco_rpc_clnt.c.obj
 .text.sc_seco_build_info
                0x0000000000000000       0x28 CMakeFiles/freertos_hello.elf.dir/home/ben/Toradex/LinuxDevelop/FreeRTOS/Colibri-iMX8X/SDK_2_9_0_MEK-MIMX8QX/devices/MIMX8QX6/scfw_api/svc/seco/seco_rpc_clnt.c.obj
 .text.sc_seco_chip_info
                0x0000000000000000       0x40 CMakeFiles/freertos_hello.elf.dir/home/ben/Toradex/LinuxDevelop/FreeRTOS/Colibri-iMX8X/SDK_2_9_0_MEK-MIMX8QX/devices/MIMX8QX6/scfw_api/svc/seco/seco_rpc_clnt.c.obj
 .text.sc_seco_enable_debug
                0x0000000000000000       0x24 CMakeFiles/freertos_hello.elf.dir/home/ben/Toradex/LinuxDevelop/FreeRTOS/Colibri-iMX8X/SDK_2_9_0_MEK-MIMX8QX/devices/MIMX8QX6/scfw_api/svc/seco/seco_rpc_clnt.c.obj
 .text.sc_seco_get_event
                0x0000000000000000       0x28 CMakeFiles/freertos_hello.elf.dir/home/ben/Toradex/LinuxDevelop/FreeRTOS/Colibri-iMX8X/SDK_2_9_0_MEK-MIMX8QX/devices/MIMX8QX6/scfw_api/svc/seco/seco_rpc_clnt.c.obj
 .text.sc_seco_fuse_write
                0x0000000000000000       0x24 CMakeFiles/freertos_hello.elf.dir/home/ben/Toradex/LinuxDevelop/FreeRTOS/Colibri-iMX8X/SDK_2_9_0_MEK-MIMX8QX/devices/MIMX8QX6/scfw_api/svc/seco/seco_rpc_clnt.c.obj
 .text.sc_seco_patch
                0x0000000000000000       0x24 CMakeFiles/freertos_hello.elf.dir/home/ben/Toradex/LinuxDevelop/FreeRTOS/Colibri-iMX8X/SDK_2_9_0_MEK-MIMX8QX/devices/MIMX8QX6/scfw_api/svc/seco/seco_rpc_clnt.c.obj
 .text.sc_seco_start_rng
                0x0000000000000000       0x24 CMakeFiles/freertos_hello.elf.dir/home/ben/Toradex/LinuxDevelop/FreeRTOS/Colibri-iMX8X/SDK_2_9_0_MEK-MIMX8QX/devices/MIMX8QX6/scfw_api/svc/seco/seco_rpc_clnt.c.obj
 .text.sc_seco_sab_msg
                0x0000000000000000       0x24 CMakeFiles/freertos_hello.elf.dir/home/ben/Toradex/LinuxDevelop/FreeRTOS/Colibri-iMX8X/SDK_2_9_0_MEK-MIMX8QX/devices/MIMX8QX6/scfw_api/svc/seco/seco_rpc_clnt.c.obj
 .text.sc_seco_secvio_enable
                0x0000000000000000       0x20 CMakeFiles/freertos_hello.elf.dir/home/ben/Toradex/LinuxDevelop/FreeRTOS/Colibri-iMX8X/SDK_2_9_0_MEK-MIMX8QX/devices/MIMX8QX6/scfw_api/svc/seco/seco_rpc_clnt.c.obj
 .text.sc_seco_secvio_config
                0x0000000000000000       0x68 CMakeFiles/freertos_hello.elf.dir/home/ben/Toradex/LinuxDevelop/FreeRTOS/Colibri-iMX8X/SDK_2_9_0_MEK-MIMX8QX/devices/MIMX8QX6/scfw_api/svc/seco/seco_rpc_clnt.c.obj
 .text.sc_seco_secvio_dgo_config
                0x0000000000000000       0x30 CMakeFiles/freertos_hello.elf.dir/home/ben/Toradex/LinuxDevelop/FreeRTOS/Colibri-iMX8X/SDK_2_9_0_MEK-MIMX8QX/devices/MIMX8QX6/scfw_api/svc/seco/seco_rpc_clnt.c.obj
 .comment       0x0000000000000000       0x4d CMakeFiles/freertos_hello.elf.dir/home/ben/Toradex/LinuxDevelop/FreeRTOS/Colibri-iMX8X/SDK_2_9_0_MEK-MIMX8QX/devices/MIMX8QX6/scfw_api/svc/seco/seco_rpc_clnt.c.obj
 .ARM.attributes
                0x0000000000000000       0x34 CMakeFiles/freertos_hello.elf.dir/home/ben/Toradex/LinuxDevelop/FreeRTOS/Colibri-iMX8X/SDK_2_9_0_MEK-MIMX8QX/devices/MIMX8QX6/scfw_api/svc/seco/seco_rpc_clnt.c.obj
 .text          0x0000000000000000        0x0 CMakeFiles/freertos_hello.elf.dir/home/ben/Toradex/LinuxDevelop/FreeRTOS/Colibri-iMX8X/SDK_2_9_0_MEK-MIMX8QX/devices/MIMX8QX6/scfw_api/svc/timer/timer_rpc_clnt.c.obj
 .data          0x0000000000000000        0x0 CMakeFiles/freertos_hello.elf.dir/home/ben/Toradex/LinuxDevelop/FreeRTOS/Colibri-iMX8X/SDK_2_9_0_MEK-MIMX8QX/devices/MIMX8QX6/scfw_api/svc/timer/timer_rpc_clnt.c.obj
 .bss           0x0000000000000000        0x0 CMakeFiles/freertos_hello.elf.dir/home/ben/Toradex/LinuxDevelop/FreeRTOS/Colibri-iMX8X/SDK_2_9_0_MEK-MIMX8QX/devices/MIMX8QX6/scfw_api/svc/timer/timer_rpc_clnt.c.obj
 .text.sc_timer_set_wdog_timeout
                0x0000000000000000       0x20 CMakeFiles/freertos_hello.elf.dir/home/ben/Toradex/LinuxDevelop/FreeRTOS/Colibri-iMX8X/SDK_2_9_0_MEK-MIMX8QX/devices/MIMX8QX6/scfw_api/svc/timer/timer_rpc_clnt.c.obj
 .text.sc_timer_set_wdog_pre_timeout
                0x0000000000000000       0x20 CMakeFiles/freertos_hello.elf.dir/home/ben/Toradex/LinuxDevelop/FreeRTOS/Colibri-iMX8X/SDK_2_9_0_MEK-MIMX8QX/devices/MIMX8QX6/scfw_api/svc/timer/timer_rpc_clnt.c.obj
 .text.sc_timer_set_wdog_window
                0x0000000000000000       0x20 CMakeFiles/freertos_hello.elf.dir/home/ben/Toradex/LinuxDevelop/FreeRTOS/Colibri-iMX8X/SDK_2_9_0_MEK-MIMX8QX/devices/MIMX8QX6/scfw_api/svc/timer/timer_rpc_clnt.c.obj
 .text.sc_timer_start_wdog
                0x0000000000000000       0x28 CMakeFiles/freertos_hello.elf.dir/home/ben/Toradex/LinuxDevelop/FreeRTOS/Colibri-iMX8X/SDK_2_9_0_MEK-MIMX8QX/devices/MIMX8QX6/scfw_api/svc/timer/timer_rpc_clnt.c.obj
 .text.sc_timer_stop_wdog
                0x0000000000000000       0x20 CMakeFiles/freertos_hello.elf.dir/home/ben/Toradex/LinuxDevelop/FreeRTOS/Colibri-iMX8X/SDK_2_9_0_MEK-MIMX8QX/devices/MIMX8QX6/scfw_api/svc/timer/timer_rpc_clnt.c.obj
 .text.sc_timer_ping_wdog
                0x0000000000000000       0x20 CMakeFiles/freertos_hello.elf.dir/home/ben/Toradex/LinuxDevelop/FreeRTOS/Colibri-iMX8X/SDK_2_9_0_MEK-MIMX8QX/devices/MIMX8QX6/scfw_api/svc/timer/timer_rpc_clnt.c.obj
 .text.sc_timer_get_wdog_status
                0x0000000000000000       0x34 CMakeFiles/freertos_hello.elf.dir/home/ben/Toradex/LinuxDevelop/FreeRTOS/Colibri-iMX8X/SDK_2_9_0_MEK-MIMX8QX/devices/MIMX8QX6/scfw_api/svc/timer/timer_rpc_clnt.c.obj
 .text.sc_timer_pt_get_wdog_status
                0x0000000000000000       0x40 CMakeFiles/freertos_hello.elf.dir/home/ben/Toradex/LinuxDevelop/FreeRTOS/Colibri-iMX8X/SDK_2_9_0_MEK-MIMX8QX/devices/MIMX8QX6/scfw_api/svc/timer/timer_rpc_clnt.c.obj
 .text.sc_timer_set_wdog_action
                0x0000000000000000       0x28 CMakeFiles/freertos_hello.elf.dir/home/ben/Toradex/LinuxDevelop/FreeRTOS/Colibri-iMX8X/SDK_2_9_0_MEK-MIMX8QX/devices/MIMX8QX6/scfw_api/svc/timer/timer_rpc_clnt.c.obj
 .text.sc_timer_set_rtc_time
                0x0000000000000000       0x40 CMakeFiles/freertos_hello.elf.dir/home/ben/Toradex/LinuxDevelop/FreeRTOS/Colibri-iMX8X/SDK_2_9_0_MEK-MIMX8QX/devices/MIMX8QX6/scfw_api/svc/timer/timer_rpc_clnt.c.obj
 .text.sc_timer_get_rtc_time
                0x0000000000000000       0x68 CMakeFiles/freertos_hello.elf.dir/home/ben/Toradex/LinuxDevelop/FreeRTOS/Colibri-iMX8X/SDK_2_9_0_MEK-MIMX8QX/devices/MIMX8QX6/scfw_api/svc/timer/timer_rpc_clnt.c.obj
 .text.sc_timer_get_rtc_sec1970
                0x0000000000000000       0x24 CMakeFiles/freertos_hello.elf.dir/home/ben/Toradex/LinuxDevelop/FreeRTOS/Colibri-iMX8X/SDK_2_9_0_MEK-MIMX8QX/devices/MIMX8QX6/scfw_api/svc/timer/timer_rpc_clnt.c.obj
 .text.sc_timer_set_rtc_alarm
                0x0000000000000000       0x40 CMakeFiles/freertos_hello.elf.dir/home/ben/Toradex/LinuxDevelop/FreeRTOS/Colibri-iMX8X/SDK_2_9_0_MEK-MIMX8QX/devices/MIMX8QX6/scfw_api/svc/timer/timer_rpc_clnt.c.obj
 .text.sc_timer_set_rtc_periodic_alarm
                0x0000000000000000       0x20 CMakeFiles/freertos_hello.elf.dir/home/ben/Toradex/LinuxDevelop/FreeRTOS/Colibri-iMX8X/SDK_2_9_0_MEK-MIMX8QX/devices/MIMX8QX6/scfw_api/svc/timer/timer_rpc_clnt.c.obj
 .text.sc_timer_cancel_rtc_alarm
                0x0000000000000000       0x20 CMakeFiles/freertos_hello.elf.dir/home/ben/Toradex/LinuxDevelop/FreeRTOS/Colibri-iMX8X/SDK_2_9_0_MEK-MIMX8QX/devices/MIMX8QX6/scfw_api/svc/timer/timer_rpc_clnt.c.obj
 .text.sc_timer_set_rtc_calb
                0x0000000000000000       0x24 CMakeFiles/freertos_hello.elf.dir/home/ben/Toradex/LinuxDevelop/FreeRTOS/Colibri-iMX8X/SDK_2_9_0_MEK-MIMX8QX/devices/MIMX8QX6/scfw_api/svc/timer/timer_rpc_clnt.c.obj
 .text.sc_timer_set_sysctr_alarm
                0x0000000000000000       0x24 CMakeFiles/freertos_hello.elf.dir/home/ben/Toradex/LinuxDevelop/FreeRTOS/Colibri-iMX8X/SDK_2_9_0_MEK-MIMX8QX/devices/MIMX8QX6/scfw_api/svc/timer/timer_rpc_clnt.c.obj
 .text.sc_timer_set_sysctr_periodic_alarm
                0x0000000000000000       0x24 CMakeFiles/freertos_hello.elf.dir/home/ben/Toradex/LinuxDevelop/FreeRTOS/Colibri-iMX8X/SDK_2_9_0_MEK-MIMX8QX/devices/MIMX8QX6/scfw_api/svc/timer/timer_rpc_clnt.c.obj
 .text.sc_timer_cancel_sysctr_alarm
                0x0000000000000000       0x20 CMakeFiles/freertos_hello.elf.dir/home/ben/Toradex/LinuxDevelop/FreeRTOS/Colibri-iMX8X/SDK_2_9_0_MEK-MIMX8QX/devices/MIMX8QX6/scfw_api/svc/timer/timer_rpc_clnt.c.obj
 .comment       0x0000000000000000       0x4d CMakeFiles/freertos_hello.elf.dir/home/ben/Toradex/LinuxDevelop/FreeRTOS/Colibri-iMX8X/SDK_2_9_0_MEK-MIMX8QX/devices/MIMX8QX6/scfw_api/svc/timer/timer_rpc_clnt.c.obj
 .ARM.attributes
                0x0000000000000000       0x34 CMakeFiles/freertos_hello.elf.dir/home/ben/Toradex/LinuxDevelop/FreeRTOS/Colibri-iMX8X/SDK_2_9_0_MEK-MIMX8QX/devices/MIMX8QX6/scfw_api/svc/timer/timer_rpc_clnt.c.obj
 .text          0x0000000000000000        0x0 CMakeFiles/freertos_hello.elf.dir/home/ben/Toradex/LinuxDevelop/FreeRTOS/Colibri-iMX8X/SDK_2_9_0_MEK-MIMX8QX/devices/MIMX8QX6/drivers/fsl_lpspi.c.obj
 .data          0x0000000000000000        0x0 CMakeFiles/freertos_hello.elf.dir/home/ben/Toradex/LinuxDevelop/FreeRTOS/Colibri-iMX8X/SDK_2_9_0_MEK-MIMX8QX/devices/MIMX8QX6/drivers/fsl_lpspi.c.obj
 .bss           0x0000000000000000        0x0 CMakeFiles/freertos_hello.elf.dir/home/ben/Toradex/LinuxDevelop/FreeRTOS/Colibri-iMX8X/SDK_2_9_0_MEK-MIMX8QX/devices/MIMX8QX6/drivers/fsl_lpspi.c.obj
 .text.LPSPI_SlaveTransferComplete
                0x0000000000000000       0x36 CMakeFiles/freertos_hello.elf.dir/home/ben/Toradex/LinuxDevelop/FreeRTOS/Colibri-iMX8X/SDK_2_9_0_MEK-MIMX8QX/devices/MIMX8QX6/drivers/fsl_lpspi.c.obj
 .text.LPSPI_SlaveTransferFillUpTxFifo
                0x0000000000000000       0x48 CMakeFiles/freertos_hello.elf.dir/home/ben/Toradex/LinuxDevelop/FreeRTOS/Colibri-iMX8X/SDK_2_9_0_MEK-MIMX8QX/devices/MIMX8QX6/drivers/fsl_lpspi.c.obj
 .text.EnableIRQ
                0x0000000000000000       0x2c CMakeFiles/freertos_hello.elf.dir/home/ben/Toradex/LinuxDevelop/FreeRTOS/Colibri-iMX8X/SDK_2_9_0_MEK-MIMX8QX/devices/MIMX8QX6/drivers/fsl_lpspi.c.obj
 .text.LPSPI_SlaveTransferHandleIRQ
                0x0000000000000000      0x120 CMakeFiles/freertos_hello.elf.dir/home/ben/Toradex/LinuxDevelop/FreeRTOS/Colibri-iMX8X/SDK_2_9_0_MEK-MIMX8QX/devices/MIMX8QX6/drivers/fsl_lpspi.c.obj
 .text.LPSPI_MasterGetDefaultConfig
                0x0000000000000000       0x2c CMakeFiles/freertos_hello.elf.dir/home/ben/Toradex/LinuxDevelop/FreeRTOS/Colibri-iMX8X/SDK_2_9_0_MEK-MIMX8QX/devices/MIMX8QX6/drivers/fsl_lpspi.c.obj
 .text.LPSPI_SlaveInit
                0x0000000000000000       0x90 CMakeFiles/freertos_hello.elf.dir/home/ben/Toradex/LinuxDevelop/FreeRTOS/Colibri-iMX8X/SDK_2_9_0_MEK-MIMX8QX/devices/MIMX8QX6/drivers/fsl_lpspi.c.obj
 .text.LPSPI_SlaveGetDefaultConfig
                0x0000000000000000       0x1a CMakeFiles/freertos_hello.elf.dir/home/ben/Toradex/LinuxDevelop/FreeRTOS/Colibri-iMX8X/SDK_2_9_0_MEK-MIMX8QX/devices/MIMX8QX6/drivers/fsl_lpspi.c.obj
 .text.LPSPI_Reset
                0x0000000000000000       0x16 CMakeFiles/freertos_hello.elf.dir/home/ben/Toradex/LinuxDevelop/FreeRTOS/Colibri-iMX8X/SDK_2_9_0_MEK-MIMX8QX/devices/MIMX8QX6/drivers/fsl_lpspi.c.obj
 .text.LPSPI_Deinit
                0x0000000000000000       0x1c CMakeFiles/freertos_hello.elf.dir/home/ben/Toradex/LinuxDevelop/FreeRTOS/Colibri-iMX8X/SDK_2_9_0_MEK-MIMX8QX/devices/MIMX8QX6/drivers/fsl_lpspi.c.obj
 .text.LPSPI_MasterTransferNonBlocking
                0x0000000000000000      0x1dc CMakeFiles/freertos_hello.elf.dir/home/ben/Toradex/LinuxDevelop/FreeRTOS/Colibri-iMX8X/SDK_2_9_0_MEK-MIMX8QX/devices/MIMX8QX6/drivers/fsl_lpspi.c.obj
 .text.LPSPI_MasterTransferGetCount
                0x0000000000000000       0x2a CMakeFiles/freertos_hello.elf.dir/home/ben/Toradex/LinuxDevelop/FreeRTOS/Colibri-iMX8X/SDK_2_9_0_MEK-MIMX8QX/devices/MIMX8QX6/drivers/fsl_lpspi.c.obj
 .text.LPSPI_MasterTransferAbort
                0x0000000000000000       0x1e CMakeFiles/freertos_hello.elf.dir/home/ben/Toradex/LinuxDevelop/FreeRTOS/Colibri-iMX8X/SDK_2_9_0_MEK-MIMX8QX/devices/MIMX8QX6/drivers/fsl_lpspi.c.obj
 .text.LPSPI_SlaveTransferCreateHandle
                0x0000000000000000       0x38 CMakeFiles/freertos_hello.elf.dir/home/ben/Toradex/LinuxDevelop/FreeRTOS/Colibri-iMX8X/SDK_2_9_0_MEK-MIMX8QX/devices/MIMX8QX6/drivers/fsl_lpspi.c.obj
 .text.LPSPI_SlaveTransferNonBlocking
                0x0000000000000000      0x1c8 CMakeFiles/freertos_hello.elf.dir/home/ben/Toradex/LinuxDevelop/FreeRTOS/Colibri-iMX8X/SDK_2_9_0_MEK-MIMX8QX/devices/MIMX8QX6/drivers/fsl_lpspi.c.obj
 .text.LPSPI_SlaveTransferGetCount
                0x0000000000000000       0x2a CMakeFiles/freertos_hello.elf.dir/home/ben/Toradex/LinuxDevelop/FreeRTOS/Colibri-iMX8X/SDK_2_9_0_MEK-MIMX8QX/devices/MIMX8QX6/drivers/fsl_lpspi.c.obj
 .text.LPSPI_SlaveTransferAbort
                0x0000000000000000       0x1a CMakeFiles/freertos_hello.elf.dir/home/ben/Toradex/LinuxDevelop/FreeRTOS/Colibri-iMX8X/SDK_2_9_0_MEK-MIMX8QX/devices/MIMX8QX6/drivers/fsl_lpspi.c.obj
 .rodata.s_lpspiIRQ
                0x0000000000000000        0x8 CMakeFiles/freertos_hello.elf.dir/home/ben/Toradex/LinuxDevelop/FreeRTOS/Colibri-iMX8X/SDK_2_9_0_MEK-MIMX8QX/devices/MIMX8QX6/drivers/fsl_lpspi.c.obj
 .text          0x0000000000000000        0x0 CMakeFiles/freertos_hello.elf.dir/home/ben/Toradex/LinuxDevelop/FreeRTOS/Colibri-iMX8X/SDK_2_9_0_MEK-MIMX8QX/devices/MIMX8QX6/drivers/fsl_lpspi_freertos.c.obj
 .data          0x0000000000000000        0x0 CMakeFiles/freertos_hello.elf.dir/home/ben/Toradex/LinuxDevelop/FreeRTOS/Colibri-iMX8X/SDK_2_9_0_MEK-MIMX8QX/devices/MIMX8QX6/drivers/fsl_lpspi_freertos.c.obj
 .bss           0x0000000000000000        0x0 CMakeFiles/freertos_hello.elf.dir/home/ben/Toradex/LinuxDevelop/FreeRTOS/Colibri-iMX8X/SDK_2_9_0_MEK-MIMX8QX/devices/MIMX8QX6/drivers/fsl_lpspi_freertos.c.obj
 .text.LPSPI_RTOS_Deinit
                0x0000000000000000       0x1a CMakeFiles/freertos_hello.elf.dir/home/ben/Toradex/LinuxDevelop/FreeRTOS/Colibri-iMX8X/SDK_2_9_0_MEK-MIMX8QX/devices/MIMX8QX6/drivers/fsl_lpspi_freertos.c.obj
 .text.LPSPI_RTOS_Transfer
                0x0000000000000000       0x5e CMakeFiles/freertos_hello.elf.dir/home/ben/Toradex/LinuxDevelop/FreeRTOS/Colibri-iMX8X/SDK_2_9_0_MEK-MIMX8QX/devices/MIMX8QX6/drivers/fsl_lpspi_freertos.c.obj
 .text          0x0000000000000000        0x0 CMakeFiles/freertos_hello.elf.dir/home/ben/Toradex/LinuxDevelop/FreeRTOS/Colibri-iMX8X/SDK_2_9_0_MEK-MIMX8QX/rtos/freertos/freertos_kernel/event_groups.c.obj
 .data          0x0000000000000000        0x0 CMakeFiles/freertos_hello.elf.dir/home/ben/Toradex/LinuxDevelop/FreeRTOS/Colibri-iMX8X/SDK_2_9_0_MEK-MIMX8QX/rtos/freertos/freertos_kernel/event_groups.c.obj
 .bss           0x0000000000000000        0x0 CMakeFiles/freertos_hello.elf.dir/home/ben/Toradex/LinuxDevelop/FreeRTOS/Colibri-iMX8X/SDK_2_9_0_MEK-MIMX8QX/rtos/freertos/freertos_kernel/event_groups.c.obj
 .text.xEventGroupCreate
                0x0000000000000000       0x1a CMakeFiles/freertos_hello.elf.dir/home/ben/Toradex/LinuxDevelop/FreeRTOS/Colibri-iMX8X/SDK_2_9_0_MEK-MIMX8QX/rtos/freertos/freertos_kernel/event_groups.c.obj
 .text.xEventGroupWaitBits
                0x0000000000000000      0x110 CMakeFiles/freertos_hello.elf.dir/home/ben/Toradex/LinuxDevelop/FreeRTOS/Colibri-iMX8X/SDK_2_9_0_MEK-MIMX8QX/rtos/freertos/freertos_kernel/event_groups.c.obj
 .text.xEventGroupClearBits
                0x0000000000000000       0x46 CMakeFiles/freertos_hello.elf.dir/home/ben/Toradex/LinuxDevelop/FreeRTOS/Colibri-iMX8X/SDK_2_9_0_MEK-MIMX8QX/rtos/freertos/freertos_kernel/event_groups.c.obj
 .text.vEventGroupClearBitsCallback
                0x0000000000000000        0x4 CMakeFiles/freertos_hello.elf.dir/home/ben/Toradex/LinuxDevelop/FreeRTOS/Colibri-iMX8X/SDK_2_9_0_MEK-MIMX8QX/rtos/freertos/freertos_kernel/event_groups.c.obj
 .text.xEventGroupClearBitsFromISR
                0x0000000000000000       0x10 CMakeFiles/freertos_hello.elf.dir/home/ben/Toradex/LinuxDevelop/FreeRTOS/Colibri-iMX8X/SDK_2_9_0_MEK-MIMX8QX/rtos/freertos/freertos_kernel/event_groups.c.obj
 .text.xEventGroupGetBitsFromISR
                0x0000000000000000       0x1c CMakeFiles/freertos_hello.elf.dir/home/ben/Toradex/LinuxDevelop/FreeRTOS/Colibri-iMX8X/SDK_2_9_0_MEK-MIMX8QX/rtos/freertos/freertos_kernel/event_groups.c.obj
 .text.xEventGroupSetBits
                0x0000000000000000       0x86 CMakeFiles/freertos_hello.elf.dir/home/ben/Toradex/LinuxDevelop/FreeRTOS/Colibri-iMX8X/SDK_2_9_0_MEK-MIMX8QX/rtos/freertos/freertos_kernel/event_groups.c.obj
 .text.xEventGroupSync
                0x0000000000000000       0xdc CMakeFiles/freertos_hello.elf.dir/home/ben/Toradex/LinuxDevelop/FreeRTOS/Colibri-iMX8X/SDK_2_9_0_MEK-MIMX8QX/rtos/freertos/freertos_kernel/event_groups.c.obj
 .text.vEventGroupSetBitsCallback
                0x0000000000000000        0x4 CMakeFiles/freertos_hello.elf.dir/home/ben/Toradex/LinuxDevelop/FreeRTOS/Colibri-iMX8X/SDK_2_9_0_MEK-MIMX8QX/rtos/freertos/freertos_kernel/event_groups.c.obj
 .text.vEventGroupDelete
                0x0000000000000000       0x40 CMakeFiles/freertos_hello.elf.dir/home/ben/Toradex/LinuxDevelop/FreeRTOS/Colibri-iMX8X/SDK_2_9_0_MEK-MIMX8QX/rtos/freertos/freertos_kernel/event_groups.c.obj
 .text.xEventGroupSetBitsFromISR
                0x0000000000000000       0x10 CMakeFiles/freertos_hello.elf.dir/home/ben/Toradex/LinuxDevelop/FreeRTOS/Colibri-iMX8X/SDK_2_9_0_MEK-MIMX8QX/rtos/freertos/freertos_kernel/event_groups.c.obj
 .text.uxEventGroupGetNumber
                0x0000000000000000        0x6 CMakeFiles/freertos_hello.elf.dir/home/ben/Toradex/LinuxDevelop/FreeRTOS/Colibri-iMX8X/SDK_2_9_0_MEK-MIMX8QX/rtos/freertos/freertos_kernel/event_groups.c.obj
 .text.vEventGroupSetNumber
                0x0000000000000000        0x4 CMakeFiles/freertos_hello.elf.dir/home/ben/Toradex/LinuxDevelop/FreeRTOS/Colibri-iMX8X/SDK_2_9_0_MEK-MIMX8QX/rtos/freertos/freertos_kernel/event_groups.c.obj
 .comment       0x0000000000000000       0x4d CMakeFiles/freertos_hello.elf.dir/home/ben/Toradex/LinuxDevelop/FreeRTOS/Colibri-iMX8X/SDK_2_9_0_MEK-MIMX8QX/rtos/freertos/freertos_kernel/event_groups.c.obj
 .ARM.attributes
                0x0000000000000000       0x34 CMakeFiles/freertos_hello.elf.dir/home/ben/Toradex/LinuxDevelop/FreeRTOS/Colibri-iMX8X/SDK_2_9_0_MEK-MIMX8QX/rtos/freertos/freertos_kernel/event_groups.c.obj
 .text          0x0000000000000000        0x0 CMakeFiles/freertos_hello.elf.dir/home/ben/Toradex/LinuxDevelop/FreeRTOS/Colibri-iMX8X/SDK_2_9_0_MEK-MIMX8QX/rtos/freertos/freertos_kernel/croutine.c.obj
 .data          0x0000000000000000        0x0 CMakeFiles/freertos_hello.elf.dir/home/ben/Toradex/LinuxDevelop/FreeRTOS/Colibri-iMX8X/SDK_2_9_0_MEK-MIMX8QX/rtos/freertos/freertos_kernel/croutine.c.obj
 .bss           0x0000000000000000        0x0 CMakeFiles/freertos_hello.elf.dir/home/ben/Toradex/LinuxDevelop/FreeRTOS/Colibri-iMX8X/SDK_2_9_0_MEK-MIMX8QX/rtos/freertos/freertos_kernel/croutine.c.obj
 .comment       0x0000000000000000       0x4d CMakeFiles/freertos_hello.elf.dir/home/ben/Toradex/LinuxDevelop/FreeRTOS/Colibri-iMX8X/SDK_2_9_0_MEK-MIMX8QX/rtos/freertos/freertos_kernel/croutine.c.obj
 .ARM.attributes
                0x0000000000000000       0x39 CMakeFiles/freertos_hello.elf.dir/home/ben/Toradex/LinuxDevelop/FreeRTOS/Colibri-iMX8X/SDK_2_9_0_MEK-MIMX8QX/rtos/freertos/freertos_kernel/croutine.c.obj
 .text          0x0000000000000000        0x0 CMakeFiles/freertos_hello.elf.dir/home/ben/Toradex/LinuxDevelop/FreeRTOS/Colibri-iMX8X/SDK_2_9_0_MEK-MIMX8QX/rtos/freertos/freertos_kernel/list.c.obj
 .data          0x0000000000000000        0x0 CMakeFiles/freertos_hello.elf.dir/home/ben/Toradex/LinuxDevelop/FreeRTOS/Colibri-iMX8X/SDK_2_9_0_MEK-MIMX8QX/rtos/freertos/freertos_kernel/list.c.obj
 .bss           0x0000000000000000        0x0 CMakeFiles/freertos_hello.elf.dir/home/ben/Toradex/LinuxDevelop/FreeRTOS/Colibri-iMX8X/SDK_2_9_0_MEK-MIMX8QX/rtos/freertos/freertos_kernel/list.c.obj
 .text          0x0000000000000000        0x0 CMakeFiles/freertos_hello.elf.dir/home/ben/Toradex/LinuxDevelop/FreeRTOS/Colibri-iMX8X/SDK_2_9_0_MEK-MIMX8QX/rtos/freertos/freertos_kernel/portable/GCC/ARM_CM4F/port.c.obj
 .data          0x0000000000000000        0x0 CMakeFiles/freertos_hello.elf.dir/home/ben/Toradex/LinuxDevelop/FreeRTOS/Colibri-iMX8X/SDK_2_9_0_MEK-MIMX8QX/rtos/freertos/freertos_kernel/portable/GCC/ARM_CM4F/port.c.obj
 .bss           0x0000000000000000        0x0 CMakeFiles/freertos_hello.elf.dir/home/ben/Toradex/LinuxDevelop/FreeRTOS/Colibri-iMX8X/SDK_2_9_0_MEK-MIMX8QX/rtos/freertos/freertos_kernel/portable/GCC/ARM_CM4F/port.c.obj
 .text.vPortEndScheduler
                0x0000000000000000       0x24 CMakeFiles/freertos_hello.elf.dir/home/ben/Toradex/LinuxDevelop/FreeRTOS/Colibri-iMX8X/SDK_2_9_0_MEK-MIMX8QX/rtos/freertos/freertos_kernel/portable/GCC/ARM_CM4F/port.c.obj
 .text          0x0000000000000000        0x0 CMakeFiles/freertos_hello.elf.dir/home/ben/Toradex/LinuxDevelop/FreeRTOS/Colibri-iMX8X/SDK_2_9_0_MEK-MIMX8QX/rtos/freertos/freertos_kernel/queue.c.obj
 .data          0x0000000000000000        0x0 CMakeFiles/freertos_hello.elf.dir/home/ben/Toradex/LinuxDevelop/FreeRTOS/Colibri-iMX8X/SDK_2_9_0_MEK-MIMX8QX/rtos/freertos/freertos_kernel/queue.c.obj
 .bss           0x0000000000000000        0x0 CMakeFiles/freertos_hello.elf.dir/home/ben/Toradex/LinuxDevelop/FreeRTOS/Colibri-iMX8X/SDK_2_9_0_MEK-MIMX8QX/rtos/freertos/freertos_kernel/queue.c.obj
 .text.xQueueCreateCountingSemaphore
                0x0000000000000000       0x3c CMakeFiles/freertos_hello.elf.dir/home/ben/Toradex/LinuxDevelop/FreeRTOS/Colibri-iMX8X/SDK_2_9_0_MEK-MIMX8QX/rtos/freertos/freertos_kernel/queue.c.obj
 .text.xQueueGiveMutexRecursive
                0x0000000000000000       0x3c CMakeFiles/freertos_hello.elf.dir/home/ben/Toradex/LinuxDevelop/FreeRTOS/Colibri-iMX8X/SDK_2_9_0_MEK-MIMX8QX/rtos/freertos/freertos_kernel/queue.c.obj
 .text.xQueueSemaphoreTake
                0x0000000000000000      0x188 CMakeFiles/freertos_hello.elf.dir/home/ben/Toradex/LinuxDevelop/FreeRTOS/Colibri-iMX8X/SDK_2_9_0_MEK-MIMX8QX/rtos/freertos/freertos_kernel/queue.c.obj
 .text.xQueueTakeMutexRecursive
                0x0000000000000000       0x44 CMakeFiles/freertos_hello.elf.dir/home/ben/Toradex/LinuxDevelop/FreeRTOS/Colibri-iMX8X/SDK_2_9_0_MEK-MIMX8QX/rtos/freertos/freertos_kernel/queue.c.obj
 .text.xQueuePeek
                0x0000000000000000      0x140 CMakeFiles/freertos_hello.elf.dir/home/ben/Toradex/LinuxDevelop/FreeRTOS/Colibri-iMX8X/SDK_2_9_0_MEK-MIMX8QX/rtos/freertos/freertos_kernel/queue.c.obj
 .text.xQueueReceiveFromISR
                0x0000000000000000       0x9e CMakeFiles/freertos_hello.elf.dir/home/ben/Toradex/LinuxDevelop/FreeRTOS/Colibri-iMX8X/SDK_2_9_0_MEK-MIMX8QX/rtos/freertos/freertos_kernel/queue.c.obj
 .text.xQueuePeekFromISR
                0x0000000000000000       0x76 CMakeFiles/freertos_hello.elf.dir/home/ben/Toradex/LinuxDevelop/FreeRTOS/Colibri-iMX8X/SDK_2_9_0_MEK-MIMX8QX/rtos/freertos/freertos_kernel/queue.c.obj
 .text.uxQueueMessagesWaiting
                0x0000000000000000       0x2a CMakeFiles/freertos_hello.elf.dir/home/ben/Toradex/LinuxDevelop/FreeRTOS/Colibri-iMX8X/SDK_2_9_0_MEK-MIMX8QX/rtos/freertos/freertos_kernel/queue.c.obj
 .text.uxQueueSpacesAvailable
                0x0000000000000000       0x2e CMakeFiles/freertos_hello.elf.dir/home/ben/Toradex/LinuxDevelop/FreeRTOS/Colibri-iMX8X/SDK_2_9_0_MEK-MIMX8QX/rtos/freertos/freertos_kernel/queue.c.obj
 .text.uxQueueMessagesWaitingFromISR
                0x0000000000000000       0x18 CMakeFiles/freertos_hello.elf.dir/home/ben/Toradex/LinuxDevelop/FreeRTOS/Colibri-iMX8X/SDK_2_9_0_MEK-MIMX8QX/rtos/freertos/freertos_kernel/queue.c.obj
 .text.uxQueueGetQueueNumber
                0x0000000000000000        0x4 CMakeFiles/freertos_hello.elf.dir/home/ben/Toradex/LinuxDevelop/FreeRTOS/Colibri-iMX8X/SDK_2_9_0_MEK-MIMX8QX/rtos/freertos/freertos_kernel/queue.c.obj
 .text.vQueueSetQueueNumber
                0x0000000000000000        0x4 CMakeFiles/freertos_hello.elf.dir/home/ben/Toradex/LinuxDevelop/FreeRTOS/Colibri-iMX8X/SDK_2_9_0_MEK-MIMX8QX/rtos/freertos/freertos_kernel/queue.c.obj
 .text.ucQueueGetQueueType
                0x0000000000000000        0x6 CMakeFiles/freertos_hello.elf.dir/home/ben/Toradex/LinuxDevelop/FreeRTOS/Colibri-iMX8X/SDK_2_9_0_MEK-MIMX8QX/rtos/freertos/freertos_kernel/queue.c.obj
 .text.xQueueIsQueueEmptyFromISR
                0x0000000000000000       0x1e CMakeFiles/freertos_hello.elf.dir/home/ben/Toradex/LinuxDevelop/FreeRTOS/Colibri-iMX8X/SDK_2_9_0_MEK-MIMX8QX/rtos/freertos/freertos_kernel/queue.c.obj
 .text.xQueueIsQueueFullFromISR
                0x0000000000000000       0x20 CMakeFiles/freertos_hello.elf.dir/home/ben/Toradex/LinuxDevelop/FreeRTOS/Colibri-iMX8X/SDK_2_9_0_MEK-MIMX8QX/rtos/freertos/freertos_kernel/queue.c.obj
 .text.pcQueueGetName
                0x0000000000000000       0x24 CMakeFiles/freertos_hello.elf.dir/home/ben/Toradex/LinuxDevelop/FreeRTOS/Colibri-iMX8X/SDK_2_9_0_MEK-MIMX8QX/rtos/freertos/freertos_kernel/queue.c.obj
 .text          0x0000000000000000        0x0 CMakeFiles/freertos_hello.elf.dir/home/ben/Toradex/LinuxDevelop/FreeRTOS/Colibri-iMX8X/SDK_2_9_0_MEK-MIMX8QX/rtos/freertos/freertos_kernel/stream_buffer.c.obj
 .data          0x0000000000000000        0x0 CMakeFiles/freertos_hello.elf.dir/home/ben/Toradex/LinuxDevelop/FreeRTOS/Colibri-iMX8X/SDK_2_9_0_MEK-MIMX8QX/rtos/freertos/freertos_kernel/stream_buffer.c.obj
 .bss           0x0000000000000000        0x0 CMakeFiles/freertos_hello.elf.dir/home/ben/Toradex/LinuxDevelop/FreeRTOS/Colibri-iMX8X/SDK_2_9_0_MEK-MIMX8QX/rtos/freertos/freertos_kernel/stream_buffer.c.obj
 .text.prvBytesInBuffer
                0x0000000000000000       0x12 CMakeFiles/freertos_hello.elf.dir/home/ben/Toradex/LinuxDevelop/FreeRTOS/Colibri-iMX8X/SDK_2_9_0_MEK-MIMX8QX/rtos/freertos/freertos_kernel/stream_buffer.c.obj
 .text.prvReadBytesFromBuffer
                0x0000000000000000       0x94 CMakeFiles/freertos_hello.elf.dir/home/ben/Toradex/LinuxDevelop/FreeRTOS/Colibri-iMX8X/SDK_2_9_0_MEK-MIMX8QX/rtos/freertos/freertos_kernel/stream_buffer.c.obj
 .text.prvInitialiseNewStreamBuffer
                0x0000000000000000       0x46 CMakeFiles/freertos_hello.elf.dir/home/ben/Toradex/LinuxDevelop/FreeRTOS/Colibri-iMX8X/SDK_2_9_0_MEK-MIMX8QX/rtos/freertos/freertos_kernel/stream_buffer.c.obj
 .text.prvWriteBytesToBuffer.part.0
                0x0000000000000000       0x72 CMakeFiles/freertos_hello.elf.dir/home/ben/Toradex/LinuxDevelop/FreeRTOS/Colibri-iMX8X/SDK_2_9_0_MEK-MIMX8QX/rtos/freertos/freertos_kernel/stream_buffer.c.obj
 .text.prvWriteMessageToBuffer
                0x0000000000000000       0x54 CMakeFiles/freertos_hello.elf.dir/home/ben/Toradex/LinuxDevelop/FreeRTOS/Colibri-iMX8X/SDK_2_9_0_MEK-MIMX8QX/rtos/freertos/freertos_kernel/stream_buffer.c.obj
 .text.xStreamBufferGenericCreate
                0x0000000000000000       0x76 CMakeFiles/freertos_hello.elf.dir/home/ben/Toradex/LinuxDevelop/FreeRTOS/Colibri-iMX8X/SDK_2_9_0_MEK-MIMX8QX/rtos/freertos/freertos_kernel/stream_buffer.c.obj
 .text.vStreamBufferDelete
                0x0000000000000000       0x26 CMakeFiles/freertos_hello.elf.dir/home/ben/Toradex/LinuxDevelop/FreeRTOS/Colibri-iMX8X/SDK_2_9_0_MEK-MIMX8QX/rtos/freertos/freertos_kernel/stream_buffer.c.obj
 .text.xStreamBufferReset
                0x0000000000000000       0x4c CMakeFiles/freertos_hello.elf.dir/home/ben/Toradex/LinuxDevelop/FreeRTOS/Colibri-iMX8X/SDK_2_9_0_MEK-MIMX8QX/rtos/freertos/freertos_kernel/stream_buffer.c.obj
 .text.xStreamBufferSetTriggerLevel
                0x0000000000000000       0x28 CMakeFiles/freertos_hello.elf.dir/home/ben/Toradex/LinuxDevelop/FreeRTOS/Colibri-iMX8X/SDK_2_9_0_MEK-MIMX8QX/rtos/freertos/freertos_kernel/stream_buffer.c.obj
 .text.xStreamBufferSpacesAvailable
                0x0000000000000000       0x28 CMakeFiles/freertos_hello.elf.dir/home/ben/Toradex/LinuxDevelop/FreeRTOS/Colibri-iMX8X/SDK_2_9_0_MEK-MIMX8QX/rtos/freertos/freertos_kernel/stream_buffer.c.obj
 .text.xStreamBufferBytesAvailable
                0x0000000000000000       0x18 CMakeFiles/freertos_hello.elf.dir/home/ben/Toradex/LinuxDevelop/FreeRTOS/Colibri-iMX8X/SDK_2_9_0_MEK-MIMX8QX/rtos/freertos/freertos_kernel/stream_buffer.c.obj
 .text.xStreamBufferSend
                0x0000000000000000      0x10a CMakeFiles/freertos_hello.elf.dir/home/ben/Toradex/LinuxDevelop/FreeRTOS/Colibri-iMX8X/SDK_2_9_0_MEK-MIMX8QX/rtos/freertos/freertos_kernel/stream_buffer.c.obj
 .text.xStreamBufferSendFromISR
                0x0000000000000000       0x9a CMakeFiles/freertos_hello.elf.dir/home/ben/Toradex/LinuxDevelop/FreeRTOS/Colibri-iMX8X/SDK_2_9_0_MEK-MIMX8QX/rtos/freertos/freertos_kernel/stream_buffer.c.obj
 .text.xStreamBufferReceive
                0x0000000000000000       0xfa CMakeFiles/freertos_hello.elf.dir/home/ben/Toradex/LinuxDevelop/FreeRTOS/Colibri-iMX8X/SDK_2_9_0_MEK-MIMX8QX/rtos/freertos/freertos_kernel/stream_buffer.c.obj
 .text.xStreamBufferNextMessageLengthBytes
                0x0000000000000000       0x56 CMakeFiles/freertos_hello.elf.dir/home/ben/Toradex/LinuxDevelop/FreeRTOS/Colibri-iMX8X/SDK_2_9_0_MEK-MIMX8QX/rtos/freertos/freertos_kernel/stream_buffer.c.obj
 .text.xStreamBufferReceiveFromISR
                0x0000000000000000       0xc4 CMakeFiles/freertos_hello.elf.dir/home/ben/Toradex/LinuxDevelop/FreeRTOS/Colibri-iMX8X/SDK_2_9_0_MEK-MIMX8QX/rtos/freertos/freertos_kernel/stream_buffer.c.obj
 .text.xStreamBufferIsEmpty
                0x0000000000000000       0x20 CMakeFiles/freertos_hello.elf.dir/home/ben/Toradex/LinuxDevelop/FreeRTOS/Colibri-iMX8X/SDK_2_9_0_MEK-MIMX8QX/rtos/freertos/freertos_kernel/stream_buffer.c.obj
 .text.xStreamBufferIsFull
                0x0000000000000000       0x30 CMakeFiles/freertos_hello.elf.dir/home/ben/Toradex/LinuxDevelop/FreeRTOS/Colibri-iMX8X/SDK_2_9_0_MEK-MIMX8QX/rtos/freertos/freertos_kernel/stream_buffer.c.obj
 .text.xStreamBufferSendCompletedFromISR
                0x0000000000000000       0x4c CMakeFiles/freertos_hello.elf.dir/home/ben/Toradex/LinuxDevelop/FreeRTOS/Colibri-iMX8X/SDK_2_9_0_MEK-MIMX8QX/rtos/freertos/freertos_kernel/stream_buffer.c.obj
 .text.xStreamBufferReceiveCompletedFromISR
                0x0000000000000000       0x4c CMakeFiles/freertos_hello.elf.dir/home/ben/Toradex/LinuxDevelop/FreeRTOS/Colibri-iMX8X/SDK_2_9_0_MEK-MIMX8QX/rtos/freertos/freertos_kernel/stream_buffer.c.obj
 .text.uxStreamBufferGetStreamBufferNumber
                0x0000000000000000        0x4 CMakeFiles/freertos_hello.elf.dir/home/ben/Toradex/LinuxDevelop/FreeRTOS/Colibri-iMX8X/SDK_2_9_0_MEK-MIMX8QX/rtos/freertos/freertos_kernel/stream_buffer.c.obj
 .text.vStreamBufferSetStreamBufferNumber
                0x0000000000000000        0x4 CMakeFiles/freertos_hello.elf.dir/home/ben/Toradex/LinuxDevelop/FreeRTOS/Colibri-iMX8X/SDK_2_9_0_MEK-MIMX8QX/rtos/freertos/freertos_kernel/stream_buffer.c.obj
 .text.ucStreamBufferGetStreamBufferType
                0x0000000000000000        0x8 CMakeFiles/freertos_hello.elf.dir/home/ben/Toradex/LinuxDevelop/FreeRTOS/Colibri-iMX8X/SDK_2_9_0_MEK-MIMX8QX/rtos/freertos/freertos_kernel/stream_buffer.c.obj
 .comment       0x0000000000000000       0x4d CMakeFiles/freertos_hello.elf.dir/home/ben/Toradex/LinuxDevelop/FreeRTOS/Colibri-iMX8X/SDK_2_9_0_MEK-MIMX8QX/rtos/freertos/freertos_kernel/stream_buffer.c.obj
 .ARM.attributes
                0x0000000000000000       0x34 CMakeFiles/freertos_hello.elf.dir/home/ben/Toradex/LinuxDevelop/FreeRTOS/Colibri-iMX8X/SDK_2_9_0_MEK-MIMX8QX/rtos/freertos/freertos_kernel/stream_buffer.c.obj
 .text          0x0000000000000000        0x0 CMakeFiles/freertos_hello.elf.dir/home/ben/Toradex/LinuxDevelop/FreeRTOS/Colibri-iMX8X/SDK_2_9_0_MEK-MIMX8QX/rtos/freertos/freertos_kernel/tasks.c.obj
 .data          0x0000000000000000        0x0 CMakeFiles/freertos_hello.elf.dir/home/ben/Toradex/LinuxDevelop/FreeRTOS/Colibri-iMX8X/SDK_2_9_0_MEK-MIMX8QX/rtos/freertos/freertos_kernel/tasks.c.obj
 .bss           0x0000000000000000        0x0 CMakeFiles/freertos_hello.elf.dir/home/ben/Toradex/LinuxDevelop/FreeRTOS/Colibri-iMX8X/SDK_2_9_0_MEK-MIMX8QX/rtos/freertos/freertos_kernel/tasks.c.obj
 .text.prvTaskIsTaskSuspended
                0x0000000000000000       0x38 CMakeFiles/freertos_hello.elf.dir/home/ben/Toradex/LinuxDevelop/FreeRTOS/Colibri-iMX8X/SDK_2_9_0_MEK-MIMX8QX/rtos/freertos/freertos_kernel/tasks.c.obj
 .text.vTaskDelete
                0x0000000000000000       0xd8 CMakeFiles/freertos_hello.elf.dir/home/ben/Toradex/LinuxDevelop/FreeRTOS/Colibri-iMX8X/SDK_2_9_0_MEK-MIMX8QX/rtos/freertos/freertos_kernel/tasks.c.obj
 .text.eTaskGetState
                0x0000000000000000       0x84 CMakeFiles/freertos_hello.elf.dir/home/ben/Toradex/LinuxDevelop/FreeRTOS/Colibri-iMX8X/SDK_2_9_0_MEK-MIMX8QX/rtos/freertos/freertos_kernel/tasks.c.obj
 .text.uxTaskPriorityGet
                0x0000000000000000       0x20 CMakeFiles/freertos_hello.elf.dir/home/ben/Toradex/LinuxDevelop/FreeRTOS/Colibri-iMX8X/SDK_2_9_0_MEK-MIMX8QX/rtos/freertos/freertos_kernel/tasks.c.obj
 .text.uxTaskPriorityGetFromISR
                0x0000000000000000       0x30 CMakeFiles/freertos_hello.elf.dir/home/ben/Toradex/LinuxDevelop/FreeRTOS/Colibri-iMX8X/SDK_2_9_0_MEK-MIMX8QX/rtos/freertos/freertos_kernel/tasks.c.obj
 .text.vTaskPrioritySet
                0x0000000000000000       0xd4 CMakeFiles/freertos_hello.elf.dir/home/ben/Toradex/LinuxDevelop/FreeRTOS/Colibri-iMX8X/SDK_2_9_0_MEK-MIMX8QX/rtos/freertos/freertos_kernel/tasks.c.obj
 .text.vTaskResume
                0x0000000000000000       0x8c CMakeFiles/freertos_hello.elf.dir/home/ben/Toradex/LinuxDevelop/FreeRTOS/Colibri-iMX8X/SDK_2_9_0_MEK-MIMX8QX/rtos/freertos/freertos_kernel/tasks.c.obj
 .text.xTaskResumeFromISR
                0x0000000000000000       0xa4 CMakeFiles/freertos_hello.elf.dir/home/ben/Toradex/LinuxDevelop/FreeRTOS/Colibri-iMX8X/SDK_2_9_0_MEK-MIMX8QX/rtos/freertos/freertos_kernel/tasks.c.obj
 .text.vTaskEndScheduler
                0x0000000000000000       0x20 CMakeFiles/freertos_hello.elf.dir/home/ben/Toradex/LinuxDevelop/FreeRTOS/Colibri-iMX8X/SDK_2_9_0_MEK-MIMX8QX/rtos/freertos/freertos_kernel/tasks.c.obj
 .text.xTaskGetTickCountFromISR
                0x0000000000000000       0x10 CMakeFiles/freertos_hello.elf.dir/home/ben/Toradex/LinuxDevelop/FreeRTOS/Colibri-iMX8X/SDK_2_9_0_MEK-MIMX8QX/rtos/freertos/freertos_kernel/tasks.c.obj
 .text.uxTaskGetNumberOfTasks
                0x0000000000000000        0xc CMakeFiles/freertos_hello.elf.dir/home/ben/Toradex/LinuxDevelop/FreeRTOS/Colibri-iMX8X/SDK_2_9_0_MEK-MIMX8QX/rtos/freertos/freertos_kernel/tasks.c.obj
 .text.pcTaskGetName
                0x0000000000000000       0x24 CMakeFiles/freertos_hello.elf.dir/home/ben/Toradex/LinuxDevelop/FreeRTOS/Colibri-iMX8X/SDK_2_9_0_MEK-MIMX8QX/rtos/freertos/freertos_kernel/tasks.c.obj
 .text.vTaskDelayUntil
                0x0000000000000000       0x90 CMakeFiles/freertos_hello.elf.dir/home/ben/Toradex/LinuxDevelop/FreeRTOS/Colibri-iMX8X/SDK_2_9_0_MEK-MIMX8QX/rtos/freertos/freertos_kernel/tasks.c.obj
 .text.vTaskDelay
                0x0000000000000000       0x48 CMakeFiles/freertos_hello.elf.dir/home/ben/Toradex/LinuxDevelop/FreeRTOS/Colibri-iMX8X/SDK_2_9_0_MEK-MIMX8QX/rtos/freertos/freertos_kernel/tasks.c.obj
 .text.xTaskCatchUpTicks
                0x0000000000000000       0x38 CMakeFiles/freertos_hello.elf.dir/home/ben/Toradex/LinuxDevelop/FreeRTOS/Colibri-iMX8X/SDK_2_9_0_MEK-MIMX8QX/rtos/freertos/freertos_kernel/tasks.c.obj
 .text.vTaskPlaceOnUnorderedEventList
                0x0000000000000000       0x58 CMakeFiles/freertos_hello.elf.dir/home/ben/Toradex/LinuxDevelop/FreeRTOS/Colibri-iMX8X/SDK_2_9_0_MEK-MIMX8QX/rtos/freertos/freertos_kernel/tasks.c.obj
 .text.vTaskRemoveFromUnorderedEventList
                0x0000000000000000       0x8c CMakeFiles/freertos_hello.elf.dir/home/ben/Toradex/LinuxDevelop/FreeRTOS/Colibri-iMX8X/SDK_2_9_0_MEK-MIMX8QX/rtos/freertos/freertos_kernel/tasks.c.obj
 .text.vTaskSetTimeOutState
                0x0000000000000000       0x38 CMakeFiles/freertos_hello.elf.dir/home/ben/Toradex/LinuxDevelop/FreeRTOS/Colibri-iMX8X/SDK_2_9_0_MEK-MIMX8QX/rtos/freertos/freertos_kernel/tasks.c.obj
 .text.uxTaskGetTaskNumber
                0x0000000000000000        0x6 CMakeFiles/freertos_hello.elf.dir/home/ben/Toradex/LinuxDevelop/FreeRTOS/Colibri-iMX8X/SDK_2_9_0_MEK-MIMX8QX/rtos/freertos/freertos_kernel/tasks.c.obj
 .text.vTaskSetTaskNumber
                0x0000000000000000        0x6 CMakeFiles/freertos_hello.elf.dir/home/ben/Toradex/LinuxDevelop/FreeRTOS/Colibri-iMX8X/SDK_2_9_0_MEK-MIMX8QX/rtos/freertos/freertos_kernel/tasks.c.obj
 .text.vTaskSetThreadLocalStoragePointer
                0x0000000000000000       0x2c CMakeFiles/freertos_hello.elf.dir/home/ben/Toradex/LinuxDevelop/FreeRTOS/Colibri-iMX8X/SDK_2_9_0_MEK-MIMX8QX/rtos/freertos/freertos_kernel/tasks.c.obj
 .text.pvTaskGetThreadLocalStoragePointer
                0x0000000000000000       0x1c CMakeFiles/freertos_hello.elf.dir/home/ben/Toradex/LinuxDevelop/FreeRTOS/Colibri-iMX8X/SDK_2_9_0_MEK-MIMX8QX/rtos/freertos/freertos_kernel/tasks.c.obj
 .text.vTaskGetInfo
                0x0000000000000000       0x7c CMakeFiles/freertos_hello.elf.dir/home/ben/Toradex/LinuxDevelop/FreeRTOS/Colibri-iMX8X/SDK_2_9_0_MEK-MIMX8QX/rtos/freertos/freertos_kernel/tasks.c.obj
 .text.prvListTasksWithinSingleList
                0x0000000000000000       0x5e CMakeFiles/freertos_hello.elf.dir/home/ben/Toradex/LinuxDevelop/FreeRTOS/Colibri-iMX8X/SDK_2_9_0_MEK-MIMX8QX/rtos/freertos/freertos_kernel/tasks.c.obj
 .text.uxTaskGetSystemState
                0x0000000000000000       0xa0 CMakeFiles/freertos_hello.elf.dir/home/ben/Toradex/LinuxDevelop/FreeRTOS/Colibri-iMX8X/SDK_2_9_0_MEK-MIMX8QX/rtos/freertos/freertos_kernel/tasks.c.obj
 .text.xTaskGetCurrentTaskHandle
                0x0000000000000000        0xc CMakeFiles/freertos_hello.elf.dir/home/ben/Toradex/LinuxDevelop/FreeRTOS/Colibri-iMX8X/SDK_2_9_0_MEK-MIMX8QX/rtos/freertos/freertos_kernel/tasks.c.obj
 .text.xTaskPriorityInherit
                0x0000000000000000       0x9c CMakeFiles/freertos_hello.elf.dir/home/ben/Toradex/LinuxDevelop/FreeRTOS/Colibri-iMX8X/SDK_2_9_0_MEK-MIMX8QX/rtos/freertos/freertos_kernel/tasks.c.obj
 .text.vTaskPriorityDisinheritAfterTimeout
                0x0000000000000000       0xb0 CMakeFiles/freertos_hello.elf.dir/home/ben/Toradex/LinuxDevelop/FreeRTOS/Colibri-iMX8X/SDK_2_9_0_MEK-MIMX8QX/rtos/freertos/freertos_kernel/tasks.c.obj
 .text.uxTaskResetEventItemValue
                0x0000000000000000       0x18 CMakeFiles/freertos_hello.elf.dir/home/ben/Toradex/LinuxDevelop/FreeRTOS/Colibri-iMX8X/SDK_2_9_0_MEK-MIMX8QX/rtos/freertos/freertos_kernel/tasks.c.obj
 .text.pvTaskIncrementMutexHeldCount
                0x0000000000000000       0x18 CMakeFiles/freertos_hello.elf.dir/home/ben/Toradex/LinuxDevelop/FreeRTOS/Colibri-iMX8X/SDK_2_9_0_MEK-MIMX8QX/rtos/freertos/freertos_kernel/tasks.c.obj
 .text.ulTaskNotifyTake
                0x0000000000000000       0x64 CMakeFiles/freertos_hello.elf.dir/home/ben/Toradex/LinuxDevelop/FreeRTOS/Colibri-iMX8X/SDK_2_9_0_MEK-MIMX8QX/rtos/freertos/freertos_kernel/tasks.c.obj
 .text.xTaskNotifyWait
                0x0000000000000000       0x8c CMakeFiles/freertos_hello.elf.dir/home/ben/Toradex/LinuxDevelop/FreeRTOS/Colibri-iMX8X/SDK_2_9_0_MEK-MIMX8QX/rtos/freertos/freertos_kernel/tasks.c.obj
 .text.xTaskGenericNotify
                0x0000000000000000       0xec CMakeFiles/freertos_hello.elf.dir/home/ben/Toradex/LinuxDevelop/FreeRTOS/Colibri-iMX8X/SDK_2_9_0_MEK-MIMX8QX/rtos/freertos/freertos_kernel/tasks.c.obj
 .text.xTaskGenericNotifyFromISR
                0x0000000000000000      0x118 CMakeFiles/freertos_hello.elf.dir/home/ben/Toradex/LinuxDevelop/FreeRTOS/Colibri-iMX8X/SDK_2_9_0_MEK-MIMX8QX/rtos/freertos/freertos_kernel/tasks.c.obj
 .text.vTaskNotifyGiveFromISR
                0x0000000000000000       0xc8 CMakeFiles/freertos_hello.elf.dir/home/ben/Toradex/LinuxDevelop/FreeRTOS/Colibri-iMX8X/SDK_2_9_0_MEK-MIMX8QX/rtos/freertos/freertos_kernel/tasks.c.obj
 .text.xTaskNotifyStateClear
                0x0000000000000000       0x2c CMakeFiles/freertos_hello.elf.dir/home/ben/Toradex/LinuxDevelop/FreeRTOS/Colibri-iMX8X/SDK_2_9_0_MEK-MIMX8QX/rtos/freertos/freertos_kernel/tasks.c.obj
 .text.ulTaskNotifyValueClear
                0x0000000000000000       0x2c CMakeFiles/freertos_hello.elf.dir/home/ben/Toradex/LinuxDevelop/FreeRTOS/Colibri-iMX8X/SDK_2_9_0_MEK-MIMX8QX/rtos/freertos/freertos_kernel/tasks.c.obj
 .rodata        0x0000000000000000       0x1c CMakeFiles/freertos_hello.elf.dir/home/ben/Toradex/LinuxDevelop/FreeRTOS/Colibri-iMX8X/SDK_2_9_0_MEK-MIMX8QX/rtos/freertos/freertos_kernel/tasks.c.obj
 .text          0x0000000000000000        0x0 CMakeFiles/freertos_hello.elf.dir/home/ben/Toradex/LinuxDevelop/FreeRTOS/Colibri-iMX8X/SDK_2_9_0_MEK-MIMX8QX/rtos/freertos/freertos_kernel/timers.c.obj
 .data          0x0000000000000000        0x0 CMakeFiles/freertos_hello.elf.dir/home/ben/Toradex/LinuxDevelop/FreeRTOS/Colibri-iMX8X/SDK_2_9_0_MEK-MIMX8QX/rtos/freertos/freertos_kernel/timers.c.obj
 .bss           0x0000000000000000        0x0 CMakeFiles/freertos_hello.elf.dir/home/ben/Toradex/LinuxDevelop/FreeRTOS/Colibri-iMX8X/SDK_2_9_0_MEK-MIMX8QX/rtos/freertos/freertos_kernel/timers.c.obj
 .text.xTimerCreate
                0x0000000000000000       0x5a CMakeFiles/freertos_hello.elf.dir/home/ben/Toradex/LinuxDevelop/FreeRTOS/Colibri-iMX8X/SDK_2_9_0_MEK-MIMX8QX/rtos/freertos/freertos_kernel/timers.c.obj
 .text.xTimerGetTimerDaemonTaskHandle
                0x0000000000000000       0x20 CMakeFiles/freertos_hello.elf.dir/home/ben/Toradex/LinuxDevelop/FreeRTOS/Colibri-iMX8X/SDK_2_9_0_MEK-MIMX8QX/rtos/freertos/freertos_kernel/timers.c.obj
 .text.xTimerGetPeriod
                0x0000000000000000       0x18 CMakeFiles/freertos_hello.elf.dir/home/ben/Toradex/LinuxDevelop/FreeRTOS/Colibri-iMX8X/SDK_2_9_0_MEK-MIMX8QX/rtos/freertos/freertos_kernel/timers.c.obj
 .text.vTimerSetReloadMode
                0x0000000000000000       0x3a CMakeFiles/freertos_hello.elf.dir/home/ben/Toradex/LinuxDevelop/FreeRTOS/Colibri-iMX8X/SDK_2_9_0_MEK-MIMX8QX/rtos/freertos/freertos_kernel/timers.c.obj
 .text.uxTimerGetReloadMode
                0x0000000000000000       0x30 CMakeFiles/freertos_hello.elf.dir/home/ben/Toradex/LinuxDevelop/FreeRTOS/Colibri-iMX8X/SDK_2_9_0_MEK-MIMX8QX/rtos/freertos/freertos_kernel/timers.c.obj
 .text.xTimerGetExpiryTime
                0x0000000000000000       0x18 CMakeFiles/freertos_hello.elf.dir/home/ben/Toradex/LinuxDevelop/FreeRTOS/Colibri-iMX8X/SDK_2_9_0_MEK-MIMX8QX/rtos/freertos/freertos_kernel/timers.c.obj
 .text.pcTimerGetName
                0x0000000000000000       0x18 CMakeFiles/freertos_hello.elf.dir/home/ben/Toradex/LinuxDevelop/FreeRTOS/Colibri-iMX8X/SDK_2_9_0_MEK-MIMX8QX/rtos/freertos/freertos_kernel/timers.c.obj
 .text.xTimerIsTimerActive
                0x0000000000000000       0x30 CMakeFiles/freertos_hello.elf.dir/home/ben/Toradex/LinuxDevelop/FreeRTOS/Colibri-iMX8X/SDK_2_9_0_MEK-MIMX8QX/rtos/freertos/freertos_kernel/timers.c.obj
 .text.pvTimerGetTimerID
                0x0000000000000000       0x2a CMakeFiles/freertos_hello.elf.dir/home/ben/Toradex/LinuxDevelop/FreeRTOS/Colibri-iMX8X/SDK_2_9_0_MEK-MIMX8QX/rtos/freertos/freertos_kernel/timers.c.obj
 .text.vTimerSetTimerID
                0x0000000000000000       0x28 CMakeFiles/freertos_hello.elf.dir/home/ben/Toradex/LinuxDevelop/FreeRTOS/Colibri-iMX8X/SDK_2_9_0_MEK-MIMX8QX/rtos/freertos/freertos_kernel/timers.c.obj
 .text.xTimerPendFunctionCallFromISR
                0x0000000000000000       0x28 CMakeFiles/freertos_hello.elf.dir/home/ben/Toradex/LinuxDevelop/FreeRTOS/Colibri-iMX8X/SDK_2_9_0_MEK-MIMX8QX/rtos/freertos/freertos_kernel/timers.c.obj
 .text.xTimerPendFunctionCall
                0x0000000000000000       0x40 CMakeFiles/freertos_hello.elf.dir/home/ben/Toradex/LinuxDevelop/FreeRTOS/Colibri-iMX8X/SDK_2_9_0_MEK-MIMX8QX/rtos/freertos/freertos_kernel/timers.c.obj
 .text.uxTimerGetTimerNumber
                0x0000000000000000        0x4 CMakeFiles/freertos_hello.elf.dir/home/ben/Toradex/LinuxDevelop/FreeRTOS/Colibri-iMX8X/SDK_2_9_0_MEK-MIMX8QX/rtos/freertos/freertos_kernel/timers.c.obj
 .text.vTimerSetTimerNumber
                0x0000000000000000        0x4 CMakeFiles/freertos_hello.elf.dir/home/ben/Toradex/LinuxDevelop/FreeRTOS/Colibri-iMX8X/SDK_2_9_0_MEK-MIMX8QX/rtos/freertos/freertos_kernel/timers.c.obj
 .text          0x0000000000000000        0x0 CMakeFiles/freertos_hello.elf.dir/home/ben/Toradex/LinuxDevelop/FreeRTOS/Colibri-iMX8X/SDK_2_9_0_MEK-MIMX8QX/rtos/freertos/freertos_kernel/portable/MemMang/heap_4.c.obj
 .data          0x0000000000000000        0x0 CMakeFiles/freertos_hello.elf.dir/home/ben/Toradex/LinuxDevelop/FreeRTOS/Colibri-iMX8X/SDK_2_9_0_MEK-MIMX8QX/rtos/freertos/freertos_kernel/portable/MemMang/heap_4.c.obj
 .bss           0x0000000000000000        0x0 CMakeFiles/freertos_hello.elf.dir/home/ben/Toradex/LinuxDevelop/FreeRTOS/Colibri-iMX8X/SDK_2_9_0_MEK-MIMX8QX/rtos/freertos/freertos_kernel/portable/MemMang/heap_4.c.obj
 .text.xPortGetFreeHeapSize
                0x0000000000000000        0xc CMakeFiles/freertos_hello.elf.dir/home/ben/Toradex/LinuxDevelop/FreeRTOS/Colibri-iMX8X/SDK_2_9_0_MEK-MIMX8QX/rtos/freertos/freertos_kernel/portable/MemMang/heap_4.c.obj
 .text.xPortGetMinimumEverFreeHeapSize
                0x0000000000000000        0xc CMakeFiles/freertos_hello.elf.dir/home/ben/Toradex/LinuxDevelop/FreeRTOS/Colibri-iMX8X/SDK_2_9_0_MEK-MIMX8QX/rtos/freertos/freertos_kernel/portable/MemMang/heap_4.c.obj
 .text.vPortInitialiseBlocks
                0x0000000000000000        0x2 CMakeFiles/freertos_hello.elf.dir/home/ben/Toradex/LinuxDevelop/FreeRTOS/Colibri-iMX8X/SDK_2_9_0_MEK-MIMX8QX/rtos/freertos/freertos_kernel/portable/MemMang/heap_4.c.obj
 .text.vPortGetHeapStats
                0x0000000000000000       0x84 CMakeFiles/freertos_hello.elf.dir/home/ben/Toradex/LinuxDevelop/FreeRTOS/Colibri-iMX8X/SDK_2_9_0_MEK-MIMX8QX/rtos/freertos/freertos_kernel/portable/MemMang/heap_4.c.obj
 .text          0x0000000000000000        0x0 CMakeFiles/freertos_hello.elf.dir/home/ben/Toradex/LinuxDevelop/FreeRTOS/Colibri-iMX8X/SDK_2_9_0_MEK-MIMX8QX/devices/MIMX8QX6/utilities/str/fsl_str.c.obj
 .data          0x0000000000000000        0x0 CMakeFiles/freertos_hello.elf.dir/home/ben/Toradex/LinuxDevelop/FreeRTOS/Colibri-iMX8X/SDK_2_9_0_MEK-MIMX8QX/devices/MIMX8QX6/utilities/str/fsl_str.c.obj
 .bss           0x0000000000000000        0x0 CMakeFiles/freertos_hello.elf.dir/home/ben/Toradex/LinuxDevelop/FreeRTOS/Colibri-iMX8X/SDK_2_9_0_MEK-MIMX8QX/devices/MIMX8QX6/utilities/str/fsl_str.c.obj
 .text.ScanIsWhiteSpace
                0x0000000000000000       0x14 CMakeFiles/freertos_hello.elf.dir/home/ben/Toradex/LinuxDevelop/FreeRTOS/Colibri-iMX8X/SDK_2_9_0_MEK-MIMX8QX/devices/MIMX8QX6/utilities/str/fsl_str.c.obj
 .text.ScanIgnoreWhiteSpace
                0x0000000000000000       0x22 CMakeFiles/freertos_hello.elf.dir/home/ben/Toradex/LinuxDevelop/FreeRTOS/Colibri-iMX8X/SDK_2_9_0_MEK-MIMX8QX/devices/MIMX8QX6/utilities/str/fsl_str.c.obj
 .text.StrFormatScanf
                0x0000000000000000      0x23e CMakeFiles/freertos_hello.elf.dir/home/ben/Toradex/LinuxDevelop/FreeRTOS/Colibri-iMX8X/SDK_2_9_0_MEK-MIMX8QX/devices/MIMX8QX6/utilities/str/fsl_str.c.obj
 .text          0x0000000000000000        0x0 CMakeFiles/freertos_hello.elf.dir/home/ben/Toradex/LinuxDevelop/FreeRTOS/Colibri-iMX8X/SDK_2_9_0_MEK-MIMX8QX/devices/MIMX8QX6/utilities/debug_console/fsl_debug_console.c.obj
 .data          0x0000000000000000        0x0 CMakeFiles/freertos_hello.elf.dir/home/ben/Toradex/LinuxDevelop/FreeRTOS/Colibri-iMX8X/SDK_2_9_0_MEK-MIMX8QX/devices/MIMX8QX6/utilities/debug_console/fsl_debug_console.c.obj
 .bss           0x0000000000000000        0x0 CMakeFiles/freertos_hello.elf.dir/home/ben/Toradex/LinuxDevelop/FreeRTOS/Colibri-iMX8X/SDK_2_9_0_MEK-MIMX8QX/devices/MIMX8QX6/utilities/debug_console/fsl_debug_console.c.obj
 .text.DbgConsole_ReadOneCharacter
                0x0000000000000000       0x20 CMakeFiles/freertos_hello.elf.dir/home/ben/Toradex/LinuxDevelop/FreeRTOS/Colibri-iMX8X/SDK_2_9_0_MEK-MIMX8QX/devices/MIMX8QX6/utilities/debug_console/fsl_debug_console.c.obj
 .text.DbgConsole_SendData
                0x0000000000000000       0x20 CMakeFiles/freertos_hello.elf.dir/home/ben/Toradex/LinuxDevelop/FreeRTOS/Colibri-iMX8X/SDK_2_9_0_MEK-MIMX8QX/devices/MIMX8QX6/utilities/debug_console/fsl_debug_console.c.obj
 .text.DbgConsole_ReadLine
                0x0000000000000000       0x50 CMakeFiles/freertos_hello.elf.dir/home/ben/Toradex/LinuxDevelop/FreeRTOS/Colibri-iMX8X/SDK_2_9_0_MEK-MIMX8QX/devices/MIMX8QX6/utilities/debug_console/fsl_debug_console.c.obj
 .text.DbgConsole_ReadCharacter
                0x0000000000000000       0x1c CMakeFiles/freertos_hello.elf.dir/home/ben/Toradex/LinuxDevelop/FreeRTOS/Colibri-iMX8X/SDK_2_9_0_MEK-MIMX8QX/devices/MIMX8QX6/utilities/debug_console/fsl_debug_console.c.obj
 .text.DbgConsole_EnterLowpower
                0x0000000000000000       0x18 CMakeFiles/freertos_hello.elf.dir/home/ben/Toradex/LinuxDevelop/FreeRTOS/Colibri-iMX8X/SDK_2_9_0_MEK-MIMX8QX/devices/MIMX8QX6/utilities/debug_console/fsl_debug_console.c.obj
 .text.DbgConsole_ExitLowpower
                0x0000000000000000       0x18 CMakeFiles/freertos_hello.elf.dir/home/ben/Toradex/LinuxDevelop/FreeRTOS/Colibri-iMX8X/SDK_2_9_0_MEK-MIMX8QX/devices/MIMX8QX6/utilities/debug_console/fsl_debug_console.c.obj
 .text.DbgConsole_Deinit
                0x0000000000000000       0x40 CMakeFiles/freertos_hello.elf.dir/home/ben/Toradex/LinuxDevelop/FreeRTOS/Colibri-iMX8X/SDK_2_9_0_MEK-MIMX8QX/devices/MIMX8QX6/utilities/debug_console/fsl_debug_console.c.obj
 .text.DbgConsole_Flush
                0x0000000000000000        0x4 CMakeFiles/freertos_hello.elf.dir/home/ben/Toradex/LinuxDevelop/FreeRTOS/Colibri-iMX8X/SDK_2_9_0_MEK-MIMX8QX/devices/MIMX8QX6/utilities/debug_console/fsl_debug_console.c.obj
 .text.DbgConsole_Putchar
                0x0000000000000000       0x12 CMakeFiles/freertos_hello.elf.dir/home/ben/Toradex/LinuxDevelop/FreeRTOS/Colibri-iMX8X/SDK_2_9_0_MEK-MIMX8QX/devices/MIMX8QX6/utilities/debug_console/fsl_debug_console.c.obj
 .text.DbgConsole_Scanf
                0x0000000000000000       0x36 CMakeFiles/freertos_hello.elf.dir/home/ben/Toradex/LinuxDevelop/FreeRTOS/Colibri-iMX8X/SDK_2_9_0_MEK-MIMX8QX/devices/MIMX8QX6/utilities/debug_console/fsl_debug_console.c.obj
 .text.DbgConsole_BlockingPrintf
                0x0000000000000000       0x54 CMakeFiles/freertos_hello.elf.dir/home/ben/Toradex/LinuxDevelop/FreeRTOS/Colibri-iMX8X/SDK_2_9_0_MEK-MIMX8QX/devices/MIMX8QX6/utilities/debug_console/fsl_debug_console.c.obj
 .text.DbgConsole_Getchar
                0x0000000000000000       0x22 CMakeFiles/freertos_hello.elf.dir/home/ben/Toradex/LinuxDevelop/FreeRTOS/Colibri-iMX8X/SDK_2_9_0_MEK-MIMX8QX/devices/MIMX8QX6/utilities/debug_console/fsl_debug_console.c.obj
 .text          0x0000000000000000        0x0 CMakeFiles/freertos_hello.elf.dir/home/ben/Toradex/LinuxDevelop/FreeRTOS/Colibri-iMX8X/SDK_2_9_0_MEK-MIMX8QX/components/serial_manager/fsl_component_serial_manager.c.obj
 .data          0x0000000000000000        0x0 CMakeFiles/freertos_hello.elf.dir/home/ben/Toradex/LinuxDevelop/FreeRTOS/Colibri-iMX8X/SDK_2_9_0_MEK-MIMX8QX/components/serial_manager/fsl_component_serial_manager.c.obj
 .bss           0x0000000000000000        0x0 CMakeFiles/freertos_hello.elf.dir/home/ben/Toradex/LinuxDevelop/FreeRTOS/Colibri-iMX8X/SDK_2_9_0_MEK-MIMX8QX/components/serial_manager/fsl_component_serial_manager.c.obj
 .text.SerialManager_Deinit
                0x0000000000000000       0x2a CMakeFiles/freertos_hello.elf.dir/home/ben/Toradex/LinuxDevelop/FreeRTOS/Colibri-iMX8X/SDK_2_9_0_MEK-MIMX8QX/components/serial_manager/fsl_component_serial_manager.c.obj
 .text.SerialManager_CloseWriteHandle
                0x0000000000000000       0x24 CMakeFiles/freertos_hello.elf.dir/home/ben/Toradex/LinuxDevelop/FreeRTOS/Colibri-iMX8X/SDK_2_9_0_MEK-MIMX8QX/components/serial_manager/fsl_component_serial_manager.c.obj
 .text.SerialManager_CloseReadHandle
                0x0000000000000000       0x1e CMakeFiles/freertos_hello.elf.dir/home/ben/Toradex/LinuxDevelop/FreeRTOS/Colibri-iMX8X/SDK_2_9_0_MEK-MIMX8QX/components/serial_manager/fsl_component_serial_manager.c.obj
 .text.SerialManager_ReadBlocking
                0x0000000000000000       0x14 CMakeFiles/freertos_hello.elf.dir/home/ben/Toradex/LinuxDevelop/FreeRTOS/Colibri-iMX8X/SDK_2_9_0_MEK-MIMX8QX/components/serial_manager/fsl_component_serial_manager.c.obj
 .text.SerialManager_EnterLowpower
                0x0000000000000000       0x12 CMakeFiles/freertos_hello.elf.dir/home/ben/Toradex/LinuxDevelop/FreeRTOS/Colibri-iMX8X/SDK_2_9_0_MEK-MIMX8QX/components/serial_manager/fsl_component_serial_manager.c.obj
 .text.SerialManager_ExitLowpower
                0x0000000000000000       0x12 CMakeFiles/freertos_hello.elf.dir/home/ben/Toradex/LinuxDevelop/FreeRTOS/Colibri-iMX8X/SDK_2_9_0_MEK-MIMX8QX/components/serial_manager/fsl_component_serial_manager.c.obj
 .text          0x0000000000000000        0x0 CMakeFiles/freertos_hello.elf.dir/home/ben/Toradex/LinuxDevelop/FreeRTOS/Colibri-iMX8X/SDK_2_9_0_MEK-MIMX8QX/components/serial_manager/fsl_component_serial_port_uart.c.obj
 .data          0x0000000000000000        0x0 CMakeFiles/freertos_hello.elf.dir/home/ben/Toradex/LinuxDevelop/FreeRTOS/Colibri-iMX8X/SDK_2_9_0_MEK-MIMX8QX/components/serial_manager/fsl_component_serial_port_uart.c.obj
 .bss           0x0000000000000000        0x0 CMakeFiles/freertos_hello.elf.dir/home/ben/Toradex/LinuxDevelop/FreeRTOS/Colibri-iMX8X/SDK_2_9_0_MEK-MIMX8QX/components/serial_manager/fsl_component_serial_port_uart.c.obj
 .text.Serial_UartDeinit
                0x0000000000000000        0xa CMakeFiles/freertos_hello.elf.dir/home/ben/Toradex/LinuxDevelop/FreeRTOS/Colibri-iMX8X/SDK_2_9_0_MEK-MIMX8QX/components/serial_manager/fsl_component_serial_port_uart.c.obj
 .text.Serial_UartRead
                0x0000000000000000        0x4 CMakeFiles/freertos_hello.elf.dir/home/ben/Toradex/LinuxDevelop/FreeRTOS/Colibri-iMX8X/SDK_2_9_0_MEK-MIMX8QX/components/serial_manager/fsl_component_serial_port_uart.c.obj
 .text.Serial_UartEnterLowpower
                0x0000000000000000        0xa CMakeFiles/freertos_hello.elf.dir/home/ben/Toradex/LinuxDevelop/FreeRTOS/Colibri-iMX8X/SDK_2_9_0_MEK-MIMX8QX/components/serial_manager/fsl_component_serial_port_uart.c.obj
 .text.Serial_UartExitLowpower
                0x0000000000000000        0xa CMakeFiles/freertos_hello.elf.dir/home/ben/Toradex/LinuxDevelop/FreeRTOS/Colibri-iMX8X/SDK_2_9_0_MEK-MIMX8QX/components/serial_manager/fsl_component_serial_port_uart.c.obj
 .text          0x0000000000000000        0x0 CMakeFiles/freertos_hello.elf.dir/home/ben/Toradex/LinuxDevelop/FreeRTOS/Colibri-iMX8X/SDK_2_9_0_MEK-MIMX8QX/devices/MIMX8QX6/drivers/fsl_lpuart.c.obj
 .data          0x0000000000000000        0x0 CMakeFiles/freertos_hello.elf.dir/home/ben/Toradex/LinuxDevelop/FreeRTOS/Colibri-iMX8X/SDK_2_9_0_MEK-MIMX8QX/devices/MIMX8QX6/drivers/fsl_lpuart.c.obj
 .bss           0x0000000000000000        0x0 CMakeFiles/freertos_hello.elf.dir/home/ben/Toradex/LinuxDevelop/FreeRTOS/Colibri-iMX8X/SDK_2_9_0_MEK-MIMX8QX/devices/MIMX8QX6/drivers/fsl_lpuart.c.obj
 .text.LPUART_ReadNonBlocking
                0x0000000000000000       0x2c CMakeFiles/freertos_hello.elf.dir/home/ben/Toradex/LinuxDevelop/FreeRTOS/Colibri-iMX8X/SDK_2_9_0_MEK-MIMX8QX/devices/MIMX8QX6/drivers/fsl_lpuart.c.obj
 .text.LPUART_TransferGetRxRingBufferLength
                0x0000000000000000       0x14 CMakeFiles/freertos_hello.elf.dir/home/ben/Toradex/LinuxDevelop/FreeRTOS/Colibri-iMX8X/SDK_2_9_0_MEK-MIMX8QX/devices/MIMX8QX6/drivers/fsl_lpuart.c.obj
 .text.LPUART_Deinit
                0x0000000000000000       0x38 CMakeFiles/freertos_hello.elf.dir/home/ben/Toradex/LinuxDevelop/FreeRTOS/Colibri-iMX8X/SDK_2_9_0_MEK-MIMX8QX/devices/MIMX8QX6/drivers/fsl_lpuart.c.obj
 .text.LPUART_SetBaudRate
                0x0000000000000000       0x9e CMakeFiles/freertos_hello.elf.dir/home/ben/Toradex/LinuxDevelop/FreeRTOS/Colibri-iMX8X/SDK_2_9_0_MEK-MIMX8QX/devices/MIMX8QX6/drivers/fsl_lpuart.c.obj
 .text.LPUART_Enable9bitMode
                0x0000000000000000       0x26 CMakeFiles/freertos_hello.elf.dir/home/ben/Toradex/LinuxDevelop/FreeRTOS/Colibri-iMX8X/SDK_2_9_0_MEK-MIMX8QX/devices/MIMX8QX6/drivers/fsl_lpuart.c.obj
 .text.LPUART_SendAddress
                0x0000000000000000       0x14 CMakeFiles/freertos_hello.elf.dir/home/ben/Toradex/LinuxDevelop/FreeRTOS/Colibri-iMX8X/SDK_2_9_0_MEK-MIMX8QX/devices/MIMX8QX6/drivers/fsl_lpuart.c.obj
 .text.LPUART_EnableInterrupts
                0x0000000000000000       0x28 CMakeFiles/freertos_hello.elf.dir/home/ben/Toradex/LinuxDevelop/FreeRTOS/Colibri-iMX8X/SDK_2_9_0_MEK-MIMX8QX/devices/MIMX8QX6/drivers/fsl_lpuart.c.obj
 .text.LPUART_DisableInterrupts
                0x0000000000000000       0x2e CMakeFiles/freertos_hello.elf.dir/home/ben/Toradex/LinuxDevelop/FreeRTOS/Colibri-iMX8X/SDK_2_9_0_MEK-MIMX8QX/devices/MIMX8QX6/drivers/fsl_lpuart.c.obj
 .text.LPUART_GetEnabledInterrupts
                0x0000000000000000       0x26 CMakeFiles/freertos_hello.elf.dir/home/ben/Toradex/LinuxDevelop/FreeRTOS/Colibri-iMX8X/SDK_2_9_0_MEK-MIMX8QX/devices/MIMX8QX6/drivers/fsl_lpuart.c.obj
 .text.LPUART_GetStatusFlags
                0x0000000000000000       0x10 CMakeFiles/freertos_hello.elf.dir/home/ben/Toradex/LinuxDevelop/FreeRTOS/Colibri-iMX8X/SDK_2_9_0_MEK-MIMX8QX/devices/MIMX8QX6/drivers/fsl_lpuart.c.obj
 .text.LPUART_TransferHandleIRQ
                0x0000000000000000      0x2bc CMakeFiles/freertos_hello.elf.dir/home/ben/Toradex/LinuxDevelop/FreeRTOS/Colibri-iMX8X/SDK_2_9_0_MEK-MIMX8QX/devices/MIMX8QX6/drivers/fsl_lpuart.c.obj
 .text.LPUART_ClearStatusFlags
                0x0000000000000000       0x48 CMakeFiles/freertos_hello.elf.dir/home/ben/Toradex/LinuxDevelop/FreeRTOS/Colibri-iMX8X/SDK_2_9_0_MEK-MIMX8QX/devices/MIMX8QX6/drivers/fsl_lpuart.c.obj
 .text.LPUART_ReadBlocking
                0x0000000000000000       0xca CMakeFiles/freertos_hello.elf.dir/home/ben/Toradex/LinuxDevelop/FreeRTOS/Colibri-iMX8X/SDK_2_9_0_MEK-MIMX8QX/devices/MIMX8QX6/drivers/fsl_lpuart.c.obj
 .text.LPUART_TransferCreateHandle
                0x0000000000000000       0x88 CMakeFiles/freertos_hello.elf.dir/home/ben/Toradex/LinuxDevelop/FreeRTOS/Colibri-iMX8X/SDK_2_9_0_MEK-MIMX8QX/devices/MIMX8QX6/drivers/fsl_lpuart.c.obj
 .text.LPUART_TransferStartRingBuffer
                0x0000000000000000       0x12 CMakeFiles/freertos_hello.elf.dir/home/ben/Toradex/LinuxDevelop/FreeRTOS/Colibri-iMX8X/SDK_2_9_0_MEK-MIMX8QX/devices/MIMX8QX6/drivers/fsl_lpuart.c.obj
 .text.LPUART_TransferStopRingBuffer
                0x0000000000000000       0x20 CMakeFiles/freertos_hello.elf.dir/home/ben/Toradex/LinuxDevelop/FreeRTOS/Colibri-iMX8X/SDK_2_9_0_MEK-MIMX8QX/devices/MIMX8QX6/drivers/fsl_lpuart.c.obj
 .text.LPUART_TransferSendNonBlocking
                0x0000000000000000       0x2c CMakeFiles/freertos_hello.elf.dir/home/ben/Toradex/LinuxDevelop/FreeRTOS/Colibri-iMX8X/SDK_2_9_0_MEK-MIMX8QX/devices/MIMX8QX6/drivers/fsl_lpuart.c.obj
 .text.LPUART_TransferAbortSend
                0x0000000000000000       0x16 CMakeFiles/freertos_hello.elf.dir/home/ben/Toradex/LinuxDevelop/FreeRTOS/Colibri-iMX8X/SDK_2_9_0_MEK-MIMX8QX/devices/MIMX8QX6/drivers/fsl_lpuart.c.obj
 .text.LPUART_TransferGetSendCount
                0x0000000000000000       0x20 CMakeFiles/freertos_hello.elf.dir/home/ben/Toradex/LinuxDevelop/FreeRTOS/Colibri-iMX8X/SDK_2_9_0_MEK-MIMX8QX/devices/MIMX8QX6/drivers/fsl_lpuart.c.obj
 .text.LPUART_TransferReceiveNonBlocking
                0x0000000000000000       0xc4 CMakeFiles/freertos_hello.elf.dir/home/ben/Toradex/LinuxDevelop/FreeRTOS/Colibri-iMX8X/SDK_2_9_0_MEK-MIMX8QX/devices/MIMX8QX6/drivers/fsl_lpuart.c.obj
 .text.LPUART_TransferAbortReceive
                0x0000000000000000       0x1c CMakeFiles/freertos_hello.elf.dir/home/ben/Toradex/LinuxDevelop/FreeRTOS/Colibri-iMX8X/SDK_2_9_0_MEK-MIMX8QX/devices/MIMX8QX6/drivers/fsl_lpuart.c.obj
 .text.LPUART_TransferGetReceiveCount
                0x0000000000000000       0x18 CMakeFiles/freertos_hello.elf.dir/home/ben/Toradex/LinuxDevelop/FreeRTOS/Colibri-iMX8X/SDK_2_9_0_MEK-MIMX8QX/devices/MIMX8QX6/drivers/fsl_lpuart.c.obj
 .text.LPUART_TransferHandleErrorIRQ
                0x0000000000000000        0x2 CMakeFiles/freertos_hello.elf.dir/home/ben/Toradex/LinuxDevelop/FreeRTOS/Colibri-iMX8X/SDK_2_9_0_MEK-MIMX8QX/devices/MIMX8QX6/drivers/fsl_lpuart.c.obj
 .rodata.s_lpuartIRQ
                0x0000000000000000        0xc CMakeFiles/freertos_hello.elf.dir/home/ben/Toradex/LinuxDevelop/FreeRTOS/Colibri-iMX8X/SDK_2_9_0_MEK-MIMX8QX/devices/MIMX8QX6/drivers/fsl_lpuart.c.obj
 .text          0x0000000000000000        0x0 CMakeFiles/freertos_hello.elf.dir/home/ben/Toradex/LinuxDevelop/FreeRTOS/Colibri-iMX8X/SDK_2_9_0_MEK-MIMX8QX/components/uart/fsl_adapter_lpuart.c.obj
 .data          0x0000000000000000        0x0 CMakeFiles/freertos_hello.elf.dir/home/ben/Toradex/LinuxDevelop/FreeRTOS/Colibri-iMX8X/SDK_2_9_0_MEK-MIMX8QX/components/uart/fsl_adapter_lpuart.c.obj
 .bss           0x0000000000000000        0x0 CMakeFiles/freertos_hello.elf.dir/home/ben/Toradex/LinuxDevelop/FreeRTOS/Colibri-iMX8X/SDK_2_9_0_MEK-MIMX8QX/components/uart/fsl_adapter_lpuart.c.obj
 .text.HAL_UartDeinit
                0x0000000000000000       0x18 CMakeFiles/freertos_hello.elf.dir/home/ben/Toradex/LinuxDevelop/FreeRTOS/Colibri-iMX8X/SDK_2_9_0_MEK-MIMX8QX/components/uart/fsl_adapter_lpuart.c.obj
 .text.HAL_UartReceiveBlocking
                0x0000000000000000       0x20 CMakeFiles/freertos_hello.elf.dir/home/ben/Toradex/LinuxDevelop/FreeRTOS/Colibri-iMX8X/SDK_2_9_0_MEK-MIMX8QX/components/uart/fsl_adapter_lpuart.c.obj
 .text.HAL_UartEnterLowpower
                0x0000000000000000        0x4 CMakeFiles/freertos_hello.elf.dir/home/ben/Toradex/LinuxDevelop/FreeRTOS/Colibri-iMX8X/SDK_2_9_0_MEK-MIMX8QX/components/uart/fsl_adapter_lpuart.c.obj
 .text.HAL_UartExitLowpower
                0x0000000000000000        0x4 CMakeFiles/freertos_hello.elf.dir/home/ben/Toradex/LinuxDevelop/FreeRTOS/Colibri-iMX8X/SDK_2_9_0_MEK-MIMX8QX/components/uart/fsl_adapter_lpuart.c.obj
 .text          0x0000000000000000        0x0 CMakeFiles/freertos_hello.elf.dir/home/ben/Toradex/LinuxDevelop/FreeRTOS/Colibri-iMX8X/SDK_2_9_0_MEK-MIMX8QX/components/lists/fsl_component_generic_list.c.obj
 .data          0x0000000000000000        0x0 CMakeFiles/freertos_hello.elf.dir/home/ben/Toradex/LinuxDevelop/FreeRTOS/Colibri-iMX8X/SDK_2_9_0_MEK-MIMX8QX/components/lists/fsl_component_generic_list.c.obj
 .bss           0x0000000000000000        0x0 CMakeFiles/freertos_hello.elf.dir/home/ben/Toradex/LinuxDevelop/FreeRTOS/Colibri-iMX8X/SDK_2_9_0_MEK-MIMX8QX/components/lists/fsl_component_generic_list.c.obj
 .text.LIST_Init
                0x0000000000000000        0xc CMakeFiles/freertos_hello.elf.dir/home/ben/Toradex/LinuxDevelop/FreeRTOS/Colibri-iMX8X/SDK_2_9_0_MEK-MIMX8QX/components/lists/fsl_component_generic_list.c.obj
 .text.LIST_GetList
                0x0000000000000000        0x4 CMakeFiles/freertos_hello.elf.dir/home/ben/Toradex/LinuxDevelop/FreeRTOS/Colibri-iMX8X/SDK_2_9_0_MEK-MIMX8QX/components/lists/fsl_component_generic_list.c.obj
 .text.LIST_AddTail
                0x0000000000000000       0x38 CMakeFiles/freertos_hello.elf.dir/home/ben/Toradex/LinuxDevelop/FreeRTOS/Colibri-iMX8X/SDK_2_9_0_MEK-MIMX8QX/components/lists/fsl_component_generic_list.c.obj
 .text.LIST_AddHead
                0x0000000000000000       0x32 CMakeFiles/freertos_hello.elf.dir/home/ben/Toradex/LinuxDevelop/FreeRTOS/Colibri-iMX8X/SDK_2_9_0_MEK-MIMX8QX/components/lists/fsl_component_generic_list.c.obj
 .text.LIST_RemoveHead
                0x0000000000000000       0x2c CMakeFiles/freertos_hello.elf.dir/home/ben/Toradex/LinuxDevelop/FreeRTOS/Colibri-iMX8X/SDK_2_9_0_MEK-MIMX8QX/components/lists/fsl_component_generic_list.c.obj
 .text.LIST_GetHead
                0x0000000000000000        0x4 CMakeFiles/freertos_hello.elf.dir/home/ben/Toradex/LinuxDevelop/FreeRTOS/Colibri-iMX8X/SDK_2_9_0_MEK-MIMX8QX/components/lists/fsl_component_generic_list.c.obj
 .text.LIST_GetNext
                0x0000000000000000        0x4 CMakeFiles/freertos_hello.elf.dir/home/ben/Toradex/LinuxDevelop/FreeRTOS/Colibri-iMX8X/SDK_2_9_0_MEK-MIMX8QX/components/lists/fsl_component_generic_list.c.obj
 .text.LIST_GetPrev
                0x0000000000000000        0x4 CMakeFiles/freertos_hello.elf.dir/home/ben/Toradex/LinuxDevelop/FreeRTOS/Colibri-iMX8X/SDK_2_9_0_MEK-MIMX8QX/components/lists/fsl_component_generic_list.c.obj
 .text.LIST_RemoveElement
                0x0000000000000000       0x42 CMakeFiles/freertos_hello.elf.dir/home/ben/Toradex/LinuxDevelop/FreeRTOS/Colibri-iMX8X/SDK_2_9_0_MEK-MIMX8QX/components/lists/fsl_component_generic_list.c.obj
 .text.LIST_AddPrevElement
                0x0000000000000000       0x54 CMakeFiles/freertos_hello.elf.dir/home/ben/Toradex/LinuxDevelop/FreeRTOS/Colibri-iMX8X/SDK_2_9_0_MEK-MIMX8QX/components/lists/fsl_component_generic_list.c.obj
 .text.LIST_GetSize
                0x0000000000000000        0x4 CMakeFiles/freertos_hello.elf.dir/home/ben/Toradex/LinuxDevelop/FreeRTOS/Colibri-iMX8X/SDK_2_9_0_MEK-MIMX8QX/components/lists/fsl_component_generic_list.c.obj
 .text.LIST_GetAvailableSize
                0x0000000000000000        0x8 CMakeFiles/freertos_hello.elf.dir/home/ben/Toradex/LinuxDevelop/FreeRTOS/Colibri-iMX8X/SDK_2_9_0_MEK-MIMX8QX/components/lists/fsl_component_generic_list.c.obj
 .comment       0x0000000000000000       0x4d CMakeFiles/freertos_hello.elf.dir/home/ben/Toradex/LinuxDevelop/FreeRTOS/Colibri-iMX8X/SDK_2_9_0_MEK-MIMX8QX/components/lists/fsl_component_generic_list.c.obj
 .ARM.attributes
                0x0000000000000000       0x34 CMakeFiles/freertos_hello.elf.dir/home/ben/Toradex/LinuxDevelop/FreeRTOS/Colibri-iMX8X/SDK_2_9_0_MEK-MIMX8QX/components/lists/fsl_component_generic_list.c.obj
 .data          0x0000000000000000        0x0 CMakeFiles/freertos_hello.elf.dir/home/ben/Toradex/LinuxDevelop/FreeRTOS/Colibri-iMX8X/SDK_2_9_0_MEK-MIMX8QX/devices/MIMX8QX6/gcc/startup_MIMX8QX6_cm4.S.obj
 .bss           0x0000000000000000        0x0 CMakeFiles/freertos_hello.elf.dir/home/ben/Toradex/LinuxDevelop/FreeRTOS/Colibri-iMX8X/SDK_2_9_0_MEK-MIMX8QX/devices/MIMX8QX6/gcc/startup_MIMX8QX6_cm4.S.obj
 .text          0x0000000000000000        0x0 CMakeFiles/freertos_hello.elf.dir/home/ben/Toradex/LinuxDevelop/FreeRTOS/Colibri-iMX8X/SDK_2_9_0_MEK-MIMX8QX/devices/MIMX8QX6/system_MIMX8QX6_cm4.c.obj
 .data          0x0000000000000000        0x0 CMakeFiles/freertos_hello.elf.dir/home/ben/Toradex/LinuxDevelop/FreeRTOS/Colibri-iMX8X/SDK_2_9_0_MEK-MIMX8QX/devices/MIMX8QX6/system_MIMX8QX6_cm4.c.obj
 .bss           0x0000000000000000        0x0 CMakeFiles/freertos_hello.elf.dir/home/ben/Toradex/LinuxDevelop/FreeRTOS/Colibri-iMX8X/SDK_2_9_0_MEK-MIMX8QX/devices/MIMX8QX6/system_MIMX8QX6_cm4.c.obj
 .text          0x0000000000000000        0x0 CMakeFiles/freertos_hello.elf.dir/home/ben/Toradex/LinuxDevelop/FreeRTOS/Colibri-iMX8X/SDK_2_9_0_MEK-MIMX8QX/devices/MIMX8QX6/drivers/fsl_gpio.c.obj
 .data          0x0000000000000000        0x0 CMakeFiles/freertos_hello.elf.dir/home/ben/Toradex/LinuxDevelop/FreeRTOS/Colibri-iMX8X/SDK_2_9_0_MEK-MIMX8QX/devices/MIMX8QX6/drivers/fsl_gpio.c.obj
 .bss           0x0000000000000000        0x0 CMakeFiles/freertos_hello.elf.dir/home/ben/Toradex/LinuxDevelop/FreeRTOS/Colibri-iMX8X/SDK_2_9_0_MEK-MIMX8QX/devices/MIMX8QX6/drivers/fsl_gpio.c.obj
 .text.GPIO_PinWrite
                0x0000000000000000       0x16 CMakeFiles/freertos_hello.elf.dir/home/ben/Toradex/LinuxDevelop/FreeRTOS/Colibri-iMX8X/SDK_2_9_0_MEK-MIMX8QX/devices/MIMX8QX6/drivers/fsl_gpio.c.obj
 .text.GPIO_PinSetInterruptConfig
                0x0000000000000000       0x78 CMakeFiles/freertos_hello.elf.dir/home/ben/Toradex/LinuxDevelop/FreeRTOS/Colibri-iMX8X/SDK_2_9_0_MEK-MIMX8QX/devices/MIMX8QX6/drivers/fsl_gpio.c.obj
 .text.GPIO_PinInit
                0x0000000000000000       0x70 CMakeFiles/freertos_hello.elf.dir/home/ben/Toradex/LinuxDevelop/FreeRTOS/Colibri-iMX8X/SDK_2_9_0_MEK-MIMX8QX/devices/MIMX8QX6/drivers/fsl_gpio.c.obj
 .rodata.s_gpioBases
                0x0000000000000000       0x34 CMakeFiles/freertos_hello.elf.dir/home/ben/Toradex/LinuxDevelop/FreeRTOS/Colibri-iMX8X/SDK_2_9_0_MEK-MIMX8QX/devices/MIMX8QX6/drivers/fsl_gpio.c.obj
 .rodata.s_gpioClock
                0x0000000000000000       0x34 CMakeFiles/freertos_hello.elf.dir/home/ben/Toradex/LinuxDevelop/FreeRTOS/Colibri-iMX8X/SDK_2_9_0_MEK-MIMX8QX/devices/MIMX8QX6/drivers/fsl_gpio.c.obj
 .comment       0x0000000000000000       0x4d CMakeFiles/freertos_hello.elf.dir/home/ben/Toradex/LinuxDevelop/FreeRTOS/Colibri-iMX8X/SDK_2_9_0_MEK-MIMX8QX/devices/MIMX8QX6/drivers/fsl_gpio.c.obj
 .ARM.attributes
                0x0000000000000000       0x34 CMakeFiles/freertos_hello.elf.dir/home/ben/Toradex/LinuxDevelop/FreeRTOS/Colibri-iMX8X/SDK_2_9_0_MEK-MIMX8QX/devices/MIMX8QX6/drivers/fsl_gpio.c.obj
 .text          0x0000000000000000        0x0 CMakeFiles/freertos_hello.elf.dir/home/ben/Toradex/LinuxDevelop/FreeRTOS/Colibri-iMX8X/SDK_2_9_0_MEK-MIMX8QX/devices/MIMX8QX6/utilities/fsl_assert.c.obj
 .data          0x0000000000000000        0x0 CMakeFiles/freertos_hello.elf.dir/home/ben/Toradex/LinuxDevelop/FreeRTOS/Colibri-iMX8X/SDK_2_9_0_MEK-MIMX8QX/devices/MIMX8QX6/utilities/fsl_assert.c.obj
 .bss           0x0000000000000000        0x0 CMakeFiles/freertos_hello.elf.dir/home/ben/Toradex/LinuxDevelop/FreeRTOS/Colibri-iMX8X/SDK_2_9_0_MEK-MIMX8QX/devices/MIMX8QX6/utilities/fsl_assert.c.obj
 .comment       0x0000000000000000       0x4d CMakeFiles/freertos_hello.elf.dir/home/ben/Toradex/LinuxDevelop/FreeRTOS/Colibri-iMX8X/SDK_2_9_0_MEK-MIMX8QX/devices/MIMX8QX6/utilities/fsl_assert.c.obj
 .ARM.attributes
                0x0000000000000000       0x39 CMakeFiles/freertos_hello.elf.dir/home/ben/Toradex/LinuxDevelop/FreeRTOS/Colibri-iMX8X/SDK_2_9_0_MEK-MIMX8QX/devices/MIMX8QX6/utilities/fsl_assert.c.obj
 .text          0x0000000000000000        0x0 CMakeFiles/freertos_hello.elf.dir/home/ben/Toradex/LinuxDevelop/FreeRTOS/Colibri-iMX8X/SDK_2_9_0_MEK-MIMX8QX/devices/MIMX8QX6/utilities/fsl_sbrk.c.obj
 .data          0x0000000000000000        0x0 CMakeFiles/freertos_hello.elf.dir/home/ben/Toradex/LinuxDevelop/FreeRTOS/Colibri-iMX8X/SDK_2_9_0_MEK-MIMX8QX/devices/MIMX8QX6/utilities/fsl_sbrk.c.obj
 .bss           0x0000000000000000        0x0 CMakeFiles/freertos_hello.elf.dir/home/ben/Toradex/LinuxDevelop/FreeRTOS/Colibri-iMX8X/SDK_2_9_0_MEK-MIMX8QX/devices/MIMX8QX6/utilities/fsl_sbrk.c.obj
 .text._sbrk    0x0000000000000000       0x38 CMakeFiles/freertos_hello.elf.dir/home/ben/Toradex/LinuxDevelop/FreeRTOS/Colibri-iMX8X/SDK_2_9_0_MEK-MIMX8QX/devices/MIMX8QX6/utilities/fsl_sbrk.c.obj
 .bss.heap_end.6066
                0x0000000000000000        0x4 CMakeFiles/freertos_hello.elf.dir/home/ben/Toradex/LinuxDevelop/FreeRTOS/Colibri-iMX8X/SDK_2_9_0_MEK-MIMX8QX/devices/MIMX8QX6/utilities/fsl_sbrk.c.obj
 .comment       0x0000000000000000       0x4d CMakeFiles/freertos_hello.elf.dir/home/ben/Toradex/LinuxDevelop/FreeRTOS/Colibri-iMX8X/SDK_2_9_0_MEK-MIMX8QX/devices/MIMX8QX6/utilities/fsl_sbrk.c.obj
 .ARM.attributes
                0x0000000000000000       0x34 CMakeFiles/freertos_hello.elf.dir/home/ben/Toradex/LinuxDevelop/FreeRTOS/Colibri-iMX8X/SDK_2_9_0_MEK-MIMX8QX/devices/MIMX8QX6/utilities/fsl_sbrk.c.obj
 .text          0x0000000000000000        0x0 /home/ben/Toradex/LinuxDevelop/FreeRTOS/Colibri-iMX8X/gcc-arm-none-eabi-9-2020-q2-update/bin/../lib/gcc/arm-none-eabi/9.3.1/../../../../arm-none-eabi/lib/thumb/v7e-m+fp/hard/libc_nano.a(lib_a-errno.o)
 .data          0x0000000000000000        0x0 /home/ben/Toradex/LinuxDevelop/FreeRTOS/Colibri-iMX8X/gcc-arm-none-eabi-9-2020-q2-update/bin/../lib/gcc/arm-none-eabi/9.3.1/../../../../arm-none-eabi/lib/thumb/v7e-m+fp/hard/libc_nano.a(lib_a-errno.o)
 .bss           0x0000000000000000        0x0 /home/ben/Toradex/LinuxDevelop/FreeRTOS/Colibri-iMX8X/gcc-arm-none-eabi-9-2020-q2-update/bin/../lib/gcc/arm-none-eabi/9.3.1/../../../../arm-none-eabi/lib/thumb/v7e-m+fp/hard/libc_nano.a(lib_a-errno.o)
 .text.__errno  0x0000000000000000        0xc /home/ben/Toradex/LinuxDevelop/FreeRTOS/Colibri-iMX8X/gcc-arm-none-eabi-9-2020-q2-update/bin/../lib/gcc/arm-none-eabi/9.3.1/../../../../arm-none-eabi/lib/thumb/v7e-m+fp/hard/libc_nano.a(lib_a-errno.o)
 .debug_frame   0x0000000000000000       0x20 /home/ben/Toradex/LinuxDevelop/FreeRTOS/Colibri-iMX8X/gcc-arm-none-eabi-9-2020-q2-update/bin/../lib/gcc/arm-none-eabi/9.3.1/../../../../arm-none-eabi/lib/thumb/v7e-m+fp/hard/libc_nano.a(lib_a-errno.o)
 .ARM.attributes
                0x0000000000000000       0x34 /home/ben/Toradex/LinuxDevelop/FreeRTOS/Colibri-iMX8X/gcc-arm-none-eabi-9-2020-q2-update/bin/../lib/gcc/arm-none-eabi/9.3.1/../../../../arm-none-eabi/lib/thumb/v7e-m+fp/hard/libc_nano.a(lib_a-errno.o)
 .text          0x0000000000000000        0x0 /home/ben/Toradex/LinuxDevelop/FreeRTOS/Colibri-iMX8X/gcc-arm-none-eabi-9-2020-q2-update/bin/../lib/gcc/arm-none-eabi/9.3.1/../../../../arm-none-eabi/lib/thumb/v7e-m+fp/hard/libc_nano.a(lib_a-exit.o)
 .data          0x0000000000000000        0x0 /home/ben/Toradex/LinuxDevelop/FreeRTOS/Colibri-iMX8X/gcc-arm-none-eabi-9-2020-q2-update/bin/../lib/gcc/arm-none-eabi/9.3.1/../../../../arm-none-eabi/lib/thumb/v7e-m+fp/hard/libc_nano.a(lib_a-exit.o)
 .bss           0x0000000000000000        0x0 /home/ben/Toradex/LinuxDevelop/FreeRTOS/Colibri-iMX8X/gcc-arm-none-eabi-9-2020-q2-update/bin/../lib/gcc/arm-none-eabi/9.3.1/../../../../arm-none-eabi/lib/thumb/v7e-m+fp/hard/libc_nano.a(lib_a-exit.o)
 .text          0x0000000000000000        0x0 /home/ben/Toradex/LinuxDevelop/FreeRTOS/Colibri-iMX8X/gcc-arm-none-eabi-9-2020-q2-update/bin/../lib/gcc/arm-none-eabi/9.3.1/../../../../arm-none-eabi/lib/thumb/v7e-m+fp/hard/libc_nano.a(lib_a-impure.o)
 .data          0x0000000000000000        0x0 /home/ben/Toradex/LinuxDevelop/FreeRTOS/Colibri-iMX8X/gcc-arm-none-eabi-9-2020-q2-update/bin/../lib/gcc/arm-none-eabi/9.3.1/../../../../arm-none-eabi/lib/thumb/v7e-m+fp/hard/libc_nano.a(lib_a-impure.o)
 .bss           0x0000000000000000        0x0 /home/ben/Toradex/LinuxDevelop/FreeRTOS/Colibri-iMX8X/gcc-arm-none-eabi-9-2020-q2-update/bin/../lib/gcc/arm-none-eabi/9.3.1/../../../../arm-none-eabi/lib/thumb/v7e-m+fp/hard/libc_nano.a(lib_a-impure.o)
 .data._impure_ptr
                0x0000000000000000        0x4 /home/ben/Toradex/LinuxDevelop/FreeRTOS/Colibri-iMX8X/gcc-arm-none-eabi-9-2020-q2-update/bin/../lib/gcc/arm-none-eabi/9.3.1/../../../../arm-none-eabi/lib/thumb/v7e-m+fp/hard/libc_nano.a(lib_a-impure.o)
 .text          0x0000000000000000        0x0 /home/ben/Toradex/LinuxDevelop/FreeRTOS/Colibri-iMX8X/gcc-arm-none-eabi-9-2020-q2-update/bin/../lib/gcc/arm-none-eabi/9.3.1/../../../../arm-none-eabi/lib/thumb/v7e-m+fp/hard/libc_nano.a(lib_a-init.o)
 .data          0x0000000000000000        0x0 /home/ben/Toradex/LinuxDevelop/FreeRTOS/Colibri-iMX8X/gcc-arm-none-eabi-9-2020-q2-update/bin/../lib/gcc/arm-none-eabi/9.3.1/../../../../arm-none-eabi/lib/thumb/v7e-m+fp/hard/libc_nano.a(lib_a-init.o)
 .bss           0x0000000000000000        0x0 /home/ben/Toradex/LinuxDevelop/FreeRTOS/Colibri-iMX8X/gcc-arm-none-eabi-9-2020-q2-update/bin/../lib/gcc/arm-none-eabi/9.3.1/../../../../arm-none-eabi/lib/thumb/v7e-m+fp/hard/libc_nano.a(lib_a-init.o)
 .text          0x0000000000000000        0x0 /home/ben/Toradex/LinuxDevelop/FreeRTOS/Colibri-iMX8X/gcc-arm-none-eabi-9-2020-q2-update/bin/../lib/gcc/arm-none-eabi/9.3.1/../../../../arm-none-eabi/lib/thumb/v7e-m+fp/hard/libc_nano.a(lib_a-malloc.o)
 .data          0x0000000000000000        0x0 /home/ben/Toradex/LinuxDevelop/FreeRTOS/Colibri-iMX8X/gcc-arm-none-eabi-9-2020-q2-update/bin/../lib/gcc/arm-none-eabi/9.3.1/../../../../arm-none-eabi/lib/thumb/v7e-m+fp/hard/libc_nano.a(lib_a-malloc.o)
 .bss           0x0000000000000000        0x0 /home/ben/Toradex/LinuxDevelop/FreeRTOS/Colibri-iMX8X/gcc-arm-none-eabi-9-2020-q2-update/bin/../lib/gcc/arm-none-eabi/9.3.1/../../../../arm-none-eabi/lib/thumb/v7e-m+fp/hard/libc_nano.a(lib_a-malloc.o)
 .text.malloc   0x0000000000000000       0x10 /home/ben/Toradex/LinuxDevelop/FreeRTOS/Colibri-iMX8X/gcc-arm-none-eabi-9-2020-q2-update/bin/../lib/gcc/arm-none-eabi/9.3.1/../../../../arm-none-eabi/lib/thumb/v7e-m+fp/hard/libc_nano.a(lib_a-malloc.o)
 .text.free     0x0000000000000000       0x10 /home/ben/Toradex/LinuxDevelop/FreeRTOS/Colibri-iMX8X/gcc-arm-none-eabi-9-2020-q2-update/bin/../lib/gcc/arm-none-eabi/9.3.1/../../../../arm-none-eabi/lib/thumb/v7e-m+fp/hard/libc_nano.a(lib_a-malloc.o)
 .debug_frame   0x0000000000000000       0x30 /home/ben/Toradex/LinuxDevelop/FreeRTOS/Colibri-iMX8X/gcc-arm-none-eabi-9-2020-q2-update/bin/../lib/gcc/arm-none-eabi/9.3.1/../../../../arm-none-eabi/lib/thumb/v7e-m+fp/hard/libc_nano.a(lib_a-malloc.o)
 .ARM.attributes
                0x0000000000000000       0x34 /home/ben/Toradex/LinuxDevelop/FreeRTOS/Colibri-iMX8X/gcc-arm-none-eabi-9-2020-q2-update/bin/../lib/gcc/arm-none-eabi/9.3.1/../../../../arm-none-eabi/lib/thumb/v7e-m+fp/hard/libc_nano.a(lib_a-malloc.o)
 .text          0x0000000000000000        0x0 /home/ben/Toradex/LinuxDevelop/FreeRTOS/Colibri-iMX8X/gcc-arm-none-eabi-9-2020-q2-update/bin/../lib/gcc/arm-none-eabi/9.3.1/../../../../arm-none-eabi/lib/thumb/v7e-m+fp/hard/libc_nano.a(lib_a-memcpy-stub.o)
 .data          0x0000000000000000        0x0 /home/ben/Toradex/LinuxDevelop/FreeRTOS/Colibri-iMX8X/gcc-arm-none-eabi-9-2020-q2-update/bin/../lib/gcc/arm-none-eabi/9.3.1/../../../../arm-none-eabi/lib/thumb/v7e-m+fp/hard/libc_nano.a(lib_a-memcpy-stub.o)
 .bss           0x0000000000000000        0x0 /home/ben/Toradex/LinuxDevelop/FreeRTOS/Colibri-iMX8X/gcc-arm-none-eabi-9-2020-q2-update/bin/../lib/gcc/arm-none-eabi/9.3.1/../../../../arm-none-eabi/lib/thumb/v7e-m+fp/hard/libc_nano.a(lib_a-memcpy-stub.o)
 .text          0x0000000000000000        0x0 /home/ben/Toradex/LinuxDevelop/FreeRTOS/Colibri-iMX8X/gcc-arm-none-eabi-9-2020-q2-update/bin/../lib/gcc/arm-none-eabi/9.3.1/../../../../arm-none-eabi/lib/thumb/v7e-m+fp/hard/libc_nano.a(lib_a-memset.o)
 .data          0x0000000000000000        0x0 /home/ben/Toradex/LinuxDevelop/FreeRTOS/Colibri-iMX8X/gcc-arm-none-eabi-9-2020-q2-update/bin/../lib/gcc/arm-none-eabi/9.3.1/../../../../arm-none-eabi/lib/thumb/v7e-m+fp/hard/libc_nano.a(lib_a-memset.o)
 .bss           0x0000000000000000        0x0 /home/ben/Toradex/LinuxDevelop/FreeRTOS/Colibri-iMX8X/gcc-arm-none-eabi-9-2020-q2-update/bin/../lib/gcc/arm-none-eabi/9.3.1/../../../../arm-none-eabi/lib/thumb/v7e-m+fp/hard/libc_nano.a(lib_a-memset.o)
 .text          0x0000000000000000        0x0 /home/ben/Toradex/LinuxDevelop/FreeRTOS/Colibri-iMX8X/gcc-arm-none-eabi-9-2020-q2-update/bin/../lib/gcc/arm-none-eabi/9.3.1/../../../../arm-none-eabi/lib/thumb/v7e-m+fp/hard/libc_nano.a(lib_a-nano-freer.o)
 .data          0x0000000000000000        0x0 /home/ben/Toradex/LinuxDevelop/FreeRTOS/Colibri-iMX8X/gcc-arm-none-eabi-9-2020-q2-update/bin/../lib/gcc/arm-none-eabi/9.3.1/../../../../arm-none-eabi/lib/thumb/v7e-m+fp/hard/libc_nano.a(lib_a-nano-freer.o)
 .bss           0x0000000000000000        0x0 /home/ben/Toradex/LinuxDevelop/FreeRTOS/Colibri-iMX8X/gcc-arm-none-eabi-9-2020-q2-update/bin/../lib/gcc/arm-none-eabi/9.3.1/../../../../arm-none-eabi/lib/thumb/v7e-m+fp/hard/libc_nano.a(lib_a-nano-freer.o)
 .text._free_r  0x0000000000000000       0xa0 /home/ben/Toradex/LinuxDevelop/FreeRTOS/Colibri-iMX8X/gcc-arm-none-eabi-9-2020-q2-update/bin/../lib/gcc/arm-none-eabi/9.3.1/../../../../arm-none-eabi/lib/thumb/v7e-m+fp/hard/libc_nano.a(lib_a-nano-freer.o)
 .debug_frame   0x0000000000000000       0x38 /home/ben/Toradex/LinuxDevelop/FreeRTOS/Colibri-iMX8X/gcc-arm-none-eabi-9-2020-q2-update/bin/../lib/gcc/arm-none-eabi/9.3.1/../../../../arm-none-eabi/lib/thumb/v7e-m+fp/hard/libc_nano.a(lib_a-nano-freer.o)
 .ARM.attributes
                0x0000000000000000       0x34 /home/ben/Toradex/LinuxDevelop/FreeRTOS/Colibri-iMX8X/gcc-arm-none-eabi-9-2020-q2-update/bin/../lib/gcc/arm-none-eabi/9.3.1/../../../../arm-none-eabi/lib/thumb/v7e-m+fp/hard/libc_nano.a(lib_a-nano-freer.o)
 .text          0x0000000000000000        0x0 /home/ben/Toradex/LinuxDevelop/FreeRTOS/Colibri-iMX8X/gcc-arm-none-eabi-9-2020-q2-update/bin/../lib/gcc/arm-none-eabi/9.3.1/../../../../arm-none-eabi/lib/thumb/v7e-m+fp/hard/libc_nano.a(lib_a-nano-mallocr.o)
 .data          0x0000000000000000        0x0 /home/ben/Toradex/LinuxDevelop/FreeRTOS/Colibri-iMX8X/gcc-arm-none-eabi-9-2020-q2-update/bin/../lib/gcc/arm-none-eabi/9.3.1/../../../../arm-none-eabi/lib/thumb/v7e-m+fp/hard/libc_nano.a(lib_a-nano-mallocr.o)
 .bss           0x0000000000000000        0x0 /home/ben/Toradex/LinuxDevelop/FreeRTOS/Colibri-iMX8X/gcc-arm-none-eabi-9-2020-q2-update/bin/../lib/gcc/arm-none-eabi/9.3.1/../../../../arm-none-eabi/lib/thumb/v7e-m+fp/hard/libc_nano.a(lib_a-nano-mallocr.o)
 .text._malloc_r
                0x0000000000000000       0xb4 /home/ben/Toradex/LinuxDevelop/FreeRTOS/Colibri-iMX8X/gcc-arm-none-eabi-9-2020-q2-update/bin/../lib/gcc/arm-none-eabi/9.3.1/../../../../arm-none-eabi/lib/thumb/v7e-m+fp/hard/libc_nano.a(lib_a-nano-mallocr.o)
 .bss.__malloc_free_list
                0x0000000000000000        0x4 /home/ben/Toradex/LinuxDevelop/FreeRTOS/Colibri-iMX8X/gcc-arm-none-eabi-9-2020-q2-update/bin/../lib/gcc/arm-none-eabi/9.3.1/../../../../arm-none-eabi/lib/thumb/v7e-m+fp/hard/libc_nano.a(lib_a-nano-mallocr.o)
 .bss.__malloc_sbrk_start
                0x0000000000000000        0x4 /home/ben/Toradex/LinuxDevelop/FreeRTOS/Colibri-iMX8X/gcc-arm-none-eabi-9-2020-q2-update/bin/../lib/gcc/arm-none-eabi/9.3.1/../../../../arm-none-eabi/lib/thumb/v7e-m+fp/hard/libc_nano.a(lib_a-nano-mallocr.o)
 .debug_frame   0x0000000000000000       0x30 /home/ben/Toradex/LinuxDevelop/FreeRTOS/Colibri-iMX8X/gcc-arm-none-eabi-9-2020-q2-update/bin/../lib/gcc/arm-none-eabi/9.3.1/../../../../arm-none-eabi/lib/thumb/v7e-m+fp/hard/libc_nano.a(lib_a-nano-mallocr.o)
 .ARM.attributes
                0x0000000000000000       0x34 /home/ben/Toradex/LinuxDevelop/FreeRTOS/Colibri-iMX8X/gcc-arm-none-eabi-9-2020-q2-update/bin/../lib/gcc/arm-none-eabi/9.3.1/../../../../arm-none-eabi/lib/thumb/v7e-m+fp/hard/libc_nano.a(lib_a-nano-mallocr.o)
 .text          0x0000000000000000        0x0 /home/ben/Toradex/LinuxDevelop/FreeRTOS/Colibri-iMX8X/gcc-arm-none-eabi-9-2020-q2-update/bin/../lib/gcc/arm-none-eabi/9.3.1/../../../../arm-none-eabi/lib/thumb/v7e-m+fp/hard/libc_nano.a(lib_a-sbrkr.o)
 .data          0x0000000000000000        0x0 /home/ben/Toradex/LinuxDevelop/FreeRTOS/Colibri-iMX8X/gcc-arm-none-eabi-9-2020-q2-update/bin/../lib/gcc/arm-none-eabi/9.3.1/../../../../arm-none-eabi/lib/thumb/v7e-m+fp/hard/libc_nano.a(lib_a-sbrkr.o)
 .bss           0x0000000000000000        0x0 /home/ben/Toradex/LinuxDevelop/FreeRTOS/Colibri-iMX8X/gcc-arm-none-eabi-9-2020-q2-update/bin/../lib/gcc/arm-none-eabi/9.3.1/../../../../arm-none-eabi/lib/thumb/v7e-m+fp/hard/libc_nano.a(lib_a-sbrkr.o)
 .text._sbrk_r  0x0000000000000000       0x20 /home/ben/Toradex/LinuxDevelop/FreeRTOS/Colibri-iMX8X/gcc-arm-none-eabi-9-2020-q2-update/bin/../lib/gcc/arm-none-eabi/9.3.1/../../../../arm-none-eabi/lib/thumb/v7e-m+fp/hard/libc_nano.a(lib_a-sbrkr.o)
 .debug_frame   0x0000000000000000       0x2c /home/ben/Toradex/LinuxDevelop/FreeRTOS/Colibri-iMX8X/gcc-arm-none-eabi-9-2020-q2-update/bin/../lib/gcc/arm-none-eabi/9.3.1/../../../../arm-none-eabi/lib/thumb/v7e-m+fp/hard/libc_nano.a(lib_a-sbrkr.o)
 .ARM.attributes
                0x0000000000000000       0x34 /home/ben/Toradex/LinuxDevelop/FreeRTOS/Colibri-iMX8X/gcc-arm-none-eabi-9-2020-q2-update/bin/../lib/gcc/arm-none-eabi/9.3.1/../../../../arm-none-eabi/lib/thumb/v7e-m+fp/hard/libc_nano.a(lib_a-sbrkr.o)
 .data          0x0000000000000000        0x0 /home/ben/Toradex/LinuxDevelop/FreeRTOS/Colibri-iMX8X/gcc-arm-none-eabi-9-2020-q2-update/bin/../lib/gcc/arm-none-eabi/9.3.1/../../../../arm-none-eabi/lib/thumb/v7e-m+fp/hard/libc_nano.a(lib_a-strlen.o)
 .bss           0x0000000000000000        0x0 /home/ben/Toradex/LinuxDevelop/FreeRTOS/Colibri-iMX8X/gcc-arm-none-eabi-9-2020-q2-update/bin/../lib/gcc/arm-none-eabi/9.3.1/../../../../arm-none-eabi/lib/thumb/v7e-m+fp/hard/libc_nano.a(lib_a-strlen.o)
 .text          0x0000000000000000        0x0 /home/ben/Toradex/LinuxDevelop/FreeRTOS/Colibri-iMX8X/gcc-arm-none-eabi-9-2020-q2-update/bin/../lib/gcc/arm-none-eabi/9.3.1/../../../../arm-none-eabi/lib/thumb/v7e-m+fp/hard/libc_nano.a(lib_a-strtoul.o)
 .data          0x0000000000000000        0x0 /home/ben/Toradex/LinuxDevelop/FreeRTOS/Colibri-iMX8X/gcc-arm-none-eabi-9-2020-q2-update/bin/../lib/gcc/arm-none-eabi/9.3.1/../../../../arm-none-eabi/lib/thumb/v7e-m+fp/hard/libc_nano.a(lib_a-strtoul.o)
 .bss           0x0000000000000000        0x0 /home/ben/Toradex/LinuxDevelop/FreeRTOS/Colibri-iMX8X/gcc-arm-none-eabi-9-2020-q2-update/bin/../lib/gcc/arm-none-eabi/9.3.1/../../../../arm-none-eabi/lib/thumb/v7e-m+fp/hard/libc_nano.a(lib_a-strtoul.o)
 .text._strtoul_l.isra.0
                0x0000000000000000       0xf8 /home/ben/Toradex/LinuxDevelop/FreeRTOS/Colibri-iMX8X/gcc-arm-none-eabi-9-2020-q2-update/bin/../lib/gcc/arm-none-eabi/9.3.1/../../../../arm-none-eabi/lib/thumb/v7e-m+fp/hard/libc_nano.a(lib_a-strtoul.o)
 .text._strtoul_r
                0x0000000000000000        0x4 /home/ben/Toradex/LinuxDevelop/FreeRTOS/Colibri-iMX8X/gcc-arm-none-eabi-9-2020-q2-update/bin/../lib/gcc/arm-none-eabi/9.3.1/../../../../arm-none-eabi/lib/thumb/v7e-m+fp/hard/libc_nano.a(lib_a-strtoul.o)
 .text.strtoul_l
                0x0000000000000000       0x14 /home/ben/Toradex/LinuxDevelop/FreeRTOS/Colibri-iMX8X/gcc-arm-none-eabi-9-2020-q2-update/bin/../lib/gcc/arm-none-eabi/9.3.1/../../../../arm-none-eabi/lib/thumb/v7e-m+fp/hard/libc_nano.a(lib_a-strtoul.o)
 .text.strtoul  0x0000000000000000       0x14 /home/ben/Toradex/LinuxDevelop/FreeRTOS/Colibri-iMX8X/gcc-arm-none-eabi-9-2020-q2-update/bin/../lib/gcc/arm-none-eabi/9.3.1/../../../../arm-none-eabi/lib/thumb/v7e-m+fp/hard/libc_nano.a(lib_a-strtoul.o)
 .debug_frame   0x0000000000000000       0x64 /home/ben/Toradex/LinuxDevelop/FreeRTOS/Colibri-iMX8X/gcc-arm-none-eabi-9-2020-q2-update/bin/../lib/gcc/arm-none-eabi/9.3.1/../../../../arm-none-eabi/lib/thumb/v7e-m+fp/hard/libc_nano.a(lib_a-strtoul.o)
 .ARM.attributes
                0x0000000000000000       0x34 /home/ben/Toradex/LinuxDevelop/FreeRTOS/Colibri-iMX8X/gcc-arm-none-eabi-9-2020-q2-update/bin/../lib/gcc/arm-none-eabi/9.3.1/../../../../arm-none-eabi/lib/thumb/v7e-m+fp/hard/libc_nano.a(lib_a-strtoul.o)
 .text          0x0000000000000000        0x0 /home/ben/Toradex/LinuxDevelop/FreeRTOS/Colibri-iMX8X/gcc-arm-none-eabi-9-2020-q2-update/bin/../lib/gcc/arm-none-eabi/9.3.1/../../../../arm-none-eabi/lib/thumb/v7e-m+fp/hard/libc_nano.a(lib_a-ctype_.o)
 .data          0x0000000000000000        0x0 /home/ben/Toradex/LinuxDevelop/FreeRTOS/Colibri-iMX8X/gcc-arm-none-eabi-9-2020-q2-update/bin/../lib/gcc/arm-none-eabi/9.3.1/../../../../arm-none-eabi/lib/thumb/v7e-m+fp/hard/libc_nano.a(lib_a-ctype_.o)
 .bss           0x0000000000000000        0x0 /home/ben/Toradex/LinuxDevelop/FreeRTOS/Colibri-iMX8X/gcc-arm-none-eabi-9-2020-q2-update/bin/../lib/gcc/arm-none-eabi/9.3.1/../../../../arm-none-eabi/lib/thumb/v7e-m+fp/hard/libc_nano.a(lib_a-ctype_.o)
 .rodata._ctype_
                0x0000000000000000      0x101 /home/ben/Toradex/LinuxDevelop/FreeRTOS/Colibri-iMX8X/gcc-arm-none-eabi-9-2020-q2-update/bin/../lib/gcc/arm-none-eabi/9.3.1/../../../../arm-none-eabi/lib/thumb/v7e-m+fp/hard/libc_nano.a(lib_a-ctype_.o)
 .ARM.attributes
                0x0000000000000000       0x32 /home/ben/Toradex/LinuxDevelop/FreeRTOS/Colibri-iMX8X/gcc-arm-none-eabi-9-2020-q2-update/bin/../lib/gcc/arm-none-eabi/9.3.1/../../../../arm-none-eabi/lib/thumb/v7e-m+fp/hard/libc_nano.a(lib_a-ctype_.o)
 .text          0x0000000000000000        0x0 /home/ben/Toradex/LinuxDevelop/FreeRTOS/Colibri-iMX8X/gcc-arm-none-eabi-9-2020-q2-update/bin/../lib/gcc/arm-none-eabi/9.3.1/../../../../arm-none-eabi/lib/thumb/v7e-m+fp/hard/libc_nano.a(lib_a-mlock.o)
 .data          0x0000000000000000        0x0 /home/ben/Toradex/LinuxDevelop/FreeRTOS/Colibri-iMX8X/gcc-arm-none-eabi-9-2020-q2-update/bin/../lib/gcc/arm-none-eabi/9.3.1/../../../../arm-none-eabi/lib/thumb/v7e-m+fp/hard/libc_nano.a(lib_a-mlock.o)
 .bss           0x0000000000000000        0x0 /home/ben/Toradex/LinuxDevelop/FreeRTOS/Colibri-iMX8X/gcc-arm-none-eabi-9-2020-q2-update/bin/../lib/gcc/arm-none-eabi/9.3.1/../../../../arm-none-eabi/lib/thumb/v7e-m+fp/hard/libc_nano.a(lib_a-mlock.o)
 .text.__malloc_lock
                0x0000000000000000        0xc /home/ben/Toradex/LinuxDevelop/FreeRTOS/Colibri-iMX8X/gcc-arm-none-eabi-9-2020-q2-update/bin/../lib/gcc/arm-none-eabi/9.3.1/../../../../arm-none-eabi/lib/thumb/v7e-m+fp/hard/libc_nano.a(lib_a-mlock.o)
 .text.__malloc_unlock
                0x0000000000000000        0xc /home/ben/Toradex/LinuxDevelop/FreeRTOS/Colibri-iMX8X/gcc-arm-none-eabi-9-2020-q2-update/bin/../lib/gcc/arm-none-eabi/9.3.1/../../../../arm-none-eabi/lib/thumb/v7e-m+fp/hard/libc_nano.a(lib_a-mlock.o)
 .debug_frame   0x0000000000000000       0x30 /home/ben/Toradex/LinuxDevelop/FreeRTOS/Colibri-iMX8X/gcc-arm-none-eabi-9-2020-q2-update/bin/../lib/gcc/arm-none-eabi/9.3.1/../../../../arm-none-eabi/lib/thumb/v7e-m+fp/hard/libc_nano.a(lib_a-mlock.o)
 .ARM.attributes
                0x0000000000000000       0x34 /home/ben/Toradex/LinuxDevelop/FreeRTOS/Colibri-iMX8X/gcc-arm-none-eabi-9-2020-q2-update/bin/../lib/gcc/arm-none-eabi/9.3.1/../../../../arm-none-eabi/lib/thumb/v7e-m+fp/hard/libc_nano.a(lib_a-mlock.o)
 .text          0x0000000000000000        0x0 /home/ben/Toradex/LinuxDevelop/FreeRTOS/Colibri-iMX8X/gcc-arm-none-eabi-9-2020-q2-update/bin/../lib/gcc/arm-none-eabi/9.3.1/../../../../arm-none-eabi/lib/thumb/v7e-m+fp/hard/libc_nano.a(lib_a-reent.o)
 .data          0x0000000000000000        0x0 /home/ben/Toradex/LinuxDevelop/FreeRTOS/Colibri-iMX8X/gcc-arm-none-eabi-9-2020-q2-update/bin/../lib/gcc/arm-none-eabi/9.3.1/../../../../arm-none-eabi/lib/thumb/v7e-m+fp/hard/libc_nano.a(lib_a-reent.o)
 .bss           0x0000000000000000        0x0 /home/ben/Toradex/LinuxDevelop/FreeRTOS/Colibri-iMX8X/gcc-arm-none-eabi-9-2020-q2-update/bin/../lib/gcc/arm-none-eabi/9.3.1/../../../../arm-none-eabi/lib/thumb/v7e-m+fp/hard/libc_nano.a(lib_a-reent.o)
 .text.cleanup_glue
                0x0000000000000000       0x1a /home/ben/Toradex/LinuxDevelop/FreeRTOS/Colibri-iMX8X/gcc-arm-none-eabi-9-2020-q2-update/bin/../lib/gcc/arm-none-eabi/9.3.1/../../../../arm-none-eabi/lib/thumb/v7e-m+fp/hard/libc_nano.a(lib_a-reent.o)
 .text._reclaim_reent
                0x0000000000000000       0xb8 /home/ben/Toradex/LinuxDevelop/FreeRTOS/Colibri-iMX8X/gcc-arm-none-eabi-9-2020-q2-update/bin/../lib/gcc/arm-none-eabi/9.3.1/../../../../arm-none-eabi/lib/thumb/v7e-m+fp/hard/libc_nano.a(lib_a-reent.o)
 .debug_frame   0x0000000000000000       0x5c /home/ben/Toradex/LinuxDevelop/FreeRTOS/Colibri-iMX8X/gcc-arm-none-eabi-9-2020-q2-update/bin/../lib/gcc/arm-none-eabi/9.3.1/../../../../arm-none-eabi/lib/thumb/v7e-m+fp/hard/libc_nano.a(lib_a-reent.o)
 .ARM.attributes
                0x0000000000000000       0x34 /home/ben/Toradex/LinuxDevelop/FreeRTOS/Colibri-iMX8X/gcc-arm-none-eabi-9-2020-q2-update/bin/../lib/gcc/arm-none-eabi/9.3.1/../../../../arm-none-eabi/lib/thumb/v7e-m+fp/hard/libc_nano.a(lib_a-reent.o)
 COMMON         0x0000000000000000        0x4 /home/ben/Toradex/LinuxDevelop/FreeRTOS/Colibri-iMX8X/gcc-arm-none-eabi-9-2020-q2-update/bin/../lib/gcc/arm-none-eabi/9.3.1/../../../../arm-none-eabi/lib/thumb/v7e-m+fp/hard/libc_nano.a(lib_a-reent.o)
 .text          0x0000000000000000        0x0 /home/ben/Toradex/LinuxDevelop/FreeRTOS/Colibri-iMX8X/gcc-arm-none-eabi-9-2020-q2-update/bin/../lib/gcc/arm-none-eabi/9.3.1/../../../../arm-none-eabi/lib/thumb/v7e-m+fp/hard/libc_nano.a(lib_a-lock.o)
 .data          0x0000000000000000        0x0 /home/ben/Toradex/LinuxDevelop/FreeRTOS/Colibri-iMX8X/gcc-arm-none-eabi-9-2020-q2-update/bin/../lib/gcc/arm-none-eabi/9.3.1/../../../../arm-none-eabi/lib/thumb/v7e-m+fp/hard/libc_nano.a(lib_a-lock.o)
 .bss           0x0000000000000000        0x0 /home/ben/Toradex/LinuxDevelop/FreeRTOS/Colibri-iMX8X/gcc-arm-none-eabi-9-2020-q2-update/bin/../lib/gcc/arm-none-eabi/9.3.1/../../../../arm-none-eabi/lib/thumb/v7e-m+fp/hard/libc_nano.a(lib_a-lock.o)
 .text.__retarget_lock_init
                0x0000000000000000        0x2 /home/ben/Toradex/LinuxDevelop/FreeRTOS/Colibri-iMX8X/gcc-arm-none-eabi-9-2020-q2-update/bin/../lib/gcc/arm-none-eabi/9.3.1/../../../../arm-none-eabi/lib/thumb/v7e-m+fp/hard/libc_nano.a(lib_a-lock.o)
 .text.__retarget_lock_init_recursive
                0x0000000000000000        0x2 /home/ben/Toradex/LinuxDevelop/FreeRTOS/Colibri-iMX8X/gcc-arm-none-eabi-9-2020-q2-update/bin/../lib/gcc/arm-none-eabi/9.3.1/../../../../arm-none-eabi/lib/thumb/v7e-m+fp/hard/libc_nano.a(lib_a-lock.o)
 .text.__retarget_lock_close
                0x0000000000000000        0x2 /home/ben/Toradex/LinuxDevelop/FreeRTOS/Colibri-iMX8X/gcc-arm-none-eabi-9-2020-q2-update/bin/../lib/gcc/arm-none-eabi/9.3.1/../../../../arm-none-eabi/lib/thumb/v7e-m+fp/hard/libc_nano.a(lib_a-lock.o)
 .text.__retarget_lock_close_recursive
                0x0000000000000000        0x2 /home/ben/Toradex/LinuxDevelop/FreeRTOS/Colibri-iMX8X/gcc-arm-none-eabi-9-2020-q2-update/bin/../lib/gcc/arm-none-eabi/9.3.1/../../../../arm-none-eabi/lib/thumb/v7e-m+fp/hard/libc_nano.a(lib_a-lock.o)
 .text.__retarget_lock_acquire
                0x0000000000000000        0x2 /home/ben/Toradex/LinuxDevelop/FreeRTOS/Colibri-iMX8X/gcc-arm-none-eabi-9-2020-q2-update/bin/../lib/gcc/arm-none-eabi/9.3.1/../../../../arm-none-eabi/lib/thumb/v7e-m+fp/hard/libc_nano.a(lib_a-lock.o)
 .text.__retarget_lock_acquire_recursive
                0x0000000000000000        0x2 /home/ben/Toradex/LinuxDevelop/FreeRTOS/Colibri-iMX8X/gcc-arm-none-eabi-9-2020-q2-update/bin/../lib/gcc/arm-none-eabi/9.3.1/../../../../arm-none-eabi/lib/thumb/v7e-m+fp/hard/libc_nano.a(lib_a-lock.o)
 .text.__retarget_lock_try_acquire
                0x0000000000000000        0x4 /home/ben/Toradex/LinuxDevelop/FreeRTOS/Colibri-iMX8X/gcc-arm-none-eabi-9-2020-q2-update/bin/../lib/gcc/arm-none-eabi/9.3.1/../../../../arm-none-eabi/lib/thumb/v7e-m+fp/hard/libc_nano.a(lib_a-lock.o)
 .text.__retarget_lock_try_acquire_recursive
                0x0000000000000000        0x4 /home/ben/Toradex/LinuxDevelop/FreeRTOS/Colibri-iMX8X/gcc-arm-none-eabi-9-2020-q2-update/bin/../lib/gcc/arm-none-eabi/9.3.1/../../../../arm-none-eabi/lib/thumb/v7e-m+fp/hard/libc_nano.a(lib_a-lock.o)
 .text.__retarget_lock_release
                0x0000000000000000        0x2 /home/ben/Toradex/LinuxDevelop/FreeRTOS/Colibri-iMX8X/gcc-arm-none-eabi-9-2020-q2-update/bin/../lib/gcc/arm-none-eabi/9.3.1/../../../../arm-none-eabi/lib/thumb/v7e-m+fp/hard/libc_nano.a(lib_a-lock.o)
 .text.__retarget_lock_release_recursive
                0x0000000000000000        0x2 /home/ben/Toradex/LinuxDevelop/FreeRTOS/Colibri-iMX8X/gcc-arm-none-eabi-9-2020-q2-update/bin/../lib/gcc/arm-none-eabi/9.3.1/../../../../arm-none-eabi/lib/thumb/v7e-m+fp/hard/libc_nano.a(lib_a-lock.o)
 .debug_frame   0x0000000000000000       0xb0 /home/ben/Toradex/LinuxDevelop/FreeRTOS/Colibri-iMX8X/gcc-arm-none-eabi-9-2020-q2-update/bin/../lib/gcc/arm-none-eabi/9.3.1/../../../../arm-none-eabi/lib/thumb/v7e-m+fp/hard/libc_nano.a(lib_a-lock.o)
 .ARM.attributes
                0x0000000000000000       0x34 /home/ben/Toradex/LinuxDevelop/FreeRTOS/Colibri-iMX8X/gcc-arm-none-eabi-9-2020-q2-update/bin/../lib/gcc/arm-none-eabi/9.3.1/../../../../arm-none-eabi/lib/thumb/v7e-m+fp/hard/libc_nano.a(lib_a-lock.o)
 COMMON         0x0000000000000000        0x9 /home/ben/Toradex/LinuxDevelop/FreeRTOS/Colibri-iMX8X/gcc-arm-none-eabi-9-2020-q2-update/bin/../lib/gcc/arm-none-eabi/9.3.1/../../../../arm-none-eabi/lib/thumb/v7e-m+fp/hard/libc_nano.a(lib_a-lock.o)
 .text          0x0000000000000000       0xa0 /home/ben/Toradex/LinuxDevelop/FreeRTOS/Colibri-iMX8X/gcc-arm-none-eabi-9-2020-q2-update/bin/../lib/gcc/arm-none-eabi/9.3.1/thumb/v7e-m+fp/hard/libgcc.a(_aeabi_ldivmod.o)
 .data          0x0000000000000000        0x0 /home/ben/Toradex/LinuxDevelop/FreeRTOS/Colibri-iMX8X/gcc-arm-none-eabi-9-2020-q2-update/bin/../lib/gcc/arm-none-eabi/9.3.1/thumb/v7e-m+fp/hard/libgcc.a(_aeabi_ldivmod.o)
 .bss           0x0000000000000000        0x0 /home/ben/Toradex/LinuxDevelop/FreeRTOS/Colibri-iMX8X/gcc-arm-none-eabi-9-2020-q2-update/bin/../lib/gcc/arm-none-eabi/9.3.1/thumb/v7e-m+fp/hard/libgcc.a(_aeabi_ldivmod.o)
 .debug_frame   0x0000000000000000       0x44 /home/ben/Toradex/LinuxDevelop/FreeRTOS/Colibri-iMX8X/gcc-arm-none-eabi-9-2020-q2-update/bin/../lib/gcc/arm-none-eabi/9.3.1/thumb/v7e-m+fp/hard/libgcc.a(_aeabi_ldivmod.o)
 .ARM.attributes
                0x0000000000000000       0x1e /home/ben/Toradex/LinuxDevelop/FreeRTOS/Colibri-iMX8X/gcc-arm-none-eabi-9-2020-q2-update/bin/../lib/gcc/arm-none-eabi/9.3.1/thumb/v7e-m+fp/hard/libgcc.a(_aeabi_ldivmod.o)
 .data          0x0000000000000000        0x0 /home/ben/Toradex/LinuxDevelop/FreeRTOS/Colibri-iMX8X/gcc-arm-none-eabi-9-2020-q2-update/bin/../lib/gcc/arm-none-eabi/9.3.1/thumb/v7e-m+fp/hard/libgcc.a(_aeabi_uldivmod.o)
 .bss           0x0000000000000000        0x0 /home/ben/Toradex/LinuxDevelop/FreeRTOS/Colibri-iMX8X/gcc-arm-none-eabi-9-2020-q2-update/bin/../lib/gcc/arm-none-eabi/9.3.1/thumb/v7e-m+fp/hard/libgcc.a(_aeabi_uldivmod.o)
 .data          0x0000000000000000        0x0 /home/ben/Toradex/LinuxDevelop/FreeRTOS/Colibri-iMX8X/gcc-arm-none-eabi-9-2020-q2-update/bin/../lib/gcc/arm-none-eabi/9.3.1/thumb/v7e-m+fp/hard/libgcc.a(_udivmoddi4.o)
 .bss           0x0000000000000000        0x0 /home/ben/Toradex/LinuxDevelop/FreeRTOS/Colibri-iMX8X/gcc-arm-none-eabi-9-2020-q2-update/bin/../lib/gcc/arm-none-eabi/9.3.1/thumb/v7e-m+fp/hard/libgcc.a(_udivmoddi4.o)
 .ARM.extab     0x0000000000000000        0x0 /home/ben/Toradex/LinuxDevelop/FreeRTOS/Colibri-iMX8X/gcc-arm-none-eabi-9-2020-q2-update/bin/../lib/gcc/arm-none-eabi/9.3.1/thumb/v7e-m+fp/hard/libgcc.a(_udivmoddi4.o)
 .data          0x0000000000000000        0x0 /home/ben/Toradex/LinuxDevelop/FreeRTOS/Colibri-iMX8X/gcc-arm-none-eabi-9-2020-q2-update/bin/../lib/gcc/arm-none-eabi/9.3.1/thumb/v7e-m+fp/hard/libgcc.a(_dvmd_tls.o)
 .bss           0x0000000000000000        0x0 /home/ben/Toradex/LinuxDevelop/FreeRTOS/Colibri-iMX8X/gcc-arm-none-eabi-9-2020-q2-update/bin/../lib/gcc/arm-none-eabi/9.3.1/thumb/v7e-m+fp/hard/libgcc.a(_dvmd_tls.o)
 .text          0x0000000000000000        0x0 /home/ben/Toradex/LinuxDevelop/FreeRTOS/Colibri-iMX8X/gcc-arm-none-eabi-9-2020-q2-update/bin/../lib/gcc/arm-none-eabi/9.3.1/../../../../arm-none-eabi/lib/thumb/v7e-m+fp/hard/libnosys.a(_exit.o)
 .data          0x0000000000000000        0x0 /home/ben/Toradex/LinuxDevelop/FreeRTOS/Colibri-iMX8X/gcc-arm-none-eabi-9-2020-q2-update/bin/../lib/gcc/arm-none-eabi/9.3.1/../../../../arm-none-eabi/lib/thumb/v7e-m+fp/hard/libnosys.a(_exit.o)
 .bss           0x0000000000000000        0x0 /home/ben/Toradex/LinuxDevelop/FreeRTOS/Colibri-iMX8X/gcc-arm-none-eabi-9-2020-q2-update/bin/../lib/gcc/arm-none-eabi/9.3.1/../../../../arm-none-eabi/lib/thumb/v7e-m+fp/hard/libnosys.a(_exit.o)
 .text          0x0000000000000000        0x0 /home/ben/Toradex/LinuxDevelop/FreeRTOS/Colibri-iMX8X/gcc-arm-none-eabi-9-2020-q2-update/bin/../lib/gcc/arm-none-eabi/9.3.1/thumb/v7e-m+fp/hard/crtend.o
 .data          0x0000000000000000        0x0 /home/ben/Toradex/LinuxDevelop/FreeRTOS/Colibri-iMX8X/gcc-arm-none-eabi-9-2020-q2-update/bin/../lib/gcc/arm-none-eabi/9.3.1/thumb/v7e-m+fp/hard/crtend.o
 .bss           0x0000000000000000        0x0 /home/ben/Toradex/LinuxDevelop/FreeRTOS/Colibri-iMX8X/gcc-arm-none-eabi-9-2020-q2-update/bin/../lib/gcc/arm-none-eabi/9.3.1/thumb/v7e-m+fp/hard/crtend.o
 .eh_frame      0x0000000000000000        0x4 /home/ben/Toradex/LinuxDevelop/FreeRTOS/Colibri-iMX8X/gcc-arm-none-eabi-9-2020-q2-update/bin/../lib/gcc/arm-none-eabi/9.3.1/thumb/v7e-m+fp/hard/crtend.o
 .ARM.attributes
                0x0000000000000000       0x32 /home/ben/Toradex/LinuxDevelop/FreeRTOS/Colibri-iMX8X/gcc-arm-none-eabi-9-2020-q2-update/bin/../lib/gcc/arm-none-eabi/9.3.1/thumb/v7e-m+fp/hard/crtend.o
 .text          0x0000000000000000        0x0 /home/ben/Toradex/LinuxDevelop/FreeRTOS/Colibri-iMX8X/gcc-arm-none-eabi-9-2020-q2-update/bin/../lib/gcc/arm-none-eabi/9.3.1/thumb/v7e-m+fp/hard/crtn.o
 .data          0x0000000000000000        0x0 /home/ben/Toradex/LinuxDevelop/FreeRTOS/Colibri-iMX8X/gcc-arm-none-eabi-9-2020-q2-update/bin/../lib/gcc/arm-none-eabi/9.3.1/thumb/v7e-m+fp/hard/crtn.o
 .bss           0x0000000000000000        0x0 /home/ben/Toradex/LinuxDevelop/FreeRTOS/Colibri-iMX8X/gcc-arm-none-eabi-9-2020-q2-update/bin/../lib/gcc/arm-none-eabi/9.3.1/thumb/v7e-m+fp/hard/crtn.o

Memory Configuration

Name             Origin             Length             Attributes
m_interrupts     0x000000001ffe0000 0x0000000000000a00 xr
m_text           0x000000001ffe0a00 0x000000000001f600 xr
m_data           0x0000000020000000 0x0000000000020000 rw
m_data2          0x0000000088000000 0x0000000008000000 rw
*default*        0x0000000000000000 0xffffffffffffffff

Linker script and memory map

LOAD /home/ben/Toradex/LinuxDevelop/FreeRTOS/Colibri-iMX8X/gcc-arm-none-eabi-9-2020-q2-update/bin/../lib/gcc/arm-none-eabi/9.3.1/thumb/v7e-m+fp/hard/crti.o
LOAD /home/ben/Toradex/LinuxDevelop/FreeRTOS/Colibri-iMX8X/gcc-arm-none-eabi-9-2020-q2-update/bin/../lib/gcc/arm-none-eabi/9.3.1/thumb/v7e-m+fp/hard/crtbegin.o
LOAD /home/ben/Toradex/LinuxDevelop/FreeRTOS/Colibri-iMX8X/gcc-arm-none-eabi-9-2020-q2-update/bin/../lib/gcc/arm-none-eabi/9.3.1/../../../../arm-none-eabi/lib/thumb/v7e-m+fp/hard/crt0.o
LOAD CMakeFiles/freertos_hello.elf.dir/home/ben/Toradex/LinuxDevelop/FreeRTOS/Colibri-iMX8X/SDK_2_9_0_MEK-MIMX8QX/boards/mekmimx8qx/rtos_examples/freertos_lpspi/freertos_hello.c.obj
LOAD CMakeFiles/freertos_hello.elf.dir/home/ben/Toradex/LinuxDevelop/FreeRTOS/Colibri-iMX8X/SDK_2_9_0_MEK-MIMX8QX/boards/mekmimx8qx/rtos_examples/freertos_lpspi/pin_mux.c.obj
LOAD CMakeFiles/freertos_hello.elf.dir/home/ben/Toradex/LinuxDevelop/FreeRTOS/Colibri-iMX8X/SDK_2_9_0_MEK-MIMX8QX/boards/mekmimx8qx/rtos_examples/freertos_lpspi/board.c.obj
LOAD CMakeFiles/freertos_hello.elf.dir/home/ben/Toradex/LinuxDevelop/FreeRTOS/Colibri-iMX8X/SDK_2_9_0_MEK-MIMX8QX/boards/mekmimx8qx/rtos_examples/freertos_lpspi/clock_config.c.obj
LOAD CMakeFiles/freertos_hello.elf.dir/home/ben/Toradex/LinuxDevelop/FreeRTOS/Colibri-iMX8X/SDK_2_9_0_MEK-MIMX8QX/boards/mekmimx8qx/rtos_examples/freertos_lpspi/empty_rsc_table.c.obj
LOAD CMakeFiles/freertos_hello.elf.dir/home/ben/Toradex/LinuxDevelop/FreeRTOS/Colibri-iMX8X/SDK_2_9_0_MEK-MIMX8QX/devices/MIMX8QX6/drivers/fsl_clock.c.obj
LOAD CMakeFiles/freertos_hello.elf.dir/home/ben/Toradex/LinuxDevelop/FreeRTOS/Colibri-iMX8X/SDK_2_9_0_MEK-MIMX8QX/devices/MIMX8QX6/drivers/fsl_common.c.obj
LOAD CMakeFiles/freertos_hello.elf.dir/home/ben/Toradex/LinuxDevelop/FreeRTOS/Colibri-iMX8X/SDK_2_9_0_MEK-MIMX8QX/devices/MIMX8QX6/scfw_api/main/ipc_imx8qx.c.obj
LOAD CMakeFiles/freertos_hello.elf.dir/home/ben/Toradex/LinuxDevelop/FreeRTOS/Colibri-iMX8X/SDK_2_9_0_MEK-MIMX8QX/devices/MIMX8QX6/scfw_api/svc/irq/irq_rpc_clnt.c.obj
LOAD CMakeFiles/freertos_hello.elf.dir/home/ben/Toradex/LinuxDevelop/FreeRTOS/Colibri-iMX8X/SDK_2_9_0_MEK-MIMX8QX/devices/MIMX8QX6/scfw_api/svc/misc/misc_rpc_clnt.c.obj
LOAD CMakeFiles/freertos_hello.elf.dir/home/ben/Toradex/LinuxDevelop/FreeRTOS/Colibri-iMX8X/SDK_2_9_0_MEK-MIMX8QX/devices/MIMX8QX6/scfw_api/svc/pad/pad_rpc_clnt.c.obj
LOAD CMakeFiles/freertos_hello.elf.dir/home/ben/Toradex/LinuxDevelop/FreeRTOS/Colibri-iMX8X/SDK_2_9_0_MEK-MIMX8QX/devices/MIMX8QX6/scfw_api/svc/pm/pm_rpc_clnt.c.obj
LOAD CMakeFiles/freertos_hello.elf.dir/home/ben/Toradex/LinuxDevelop/FreeRTOS/Colibri-iMX8X/SDK_2_9_0_MEK-MIMX8QX/devices/MIMX8QX6/scfw_api/svc/rm/rm_rpc_clnt.c.obj
LOAD CMakeFiles/freertos_hello.elf.dir/home/ben/Toradex/LinuxDevelop/FreeRTOS/Colibri-iMX8X/SDK_2_9_0_MEK-MIMX8QX/devices/MIMX8QX6/scfw_api/svc/seco/seco_rpc_clnt.c.obj
LOAD CMakeFiles/freertos_hello.elf.dir/home/ben/Toradex/LinuxDevelop/FreeRTOS/Colibri-iMX8X/SDK_2_9_0_MEK-MIMX8QX/devices/MIMX8QX6/scfw_api/svc/timer/timer_rpc_clnt.c.obj
LOAD CMakeFiles/freertos_hello.elf.dir/home/ben/Toradex/LinuxDevelop/FreeRTOS/Colibri-iMX8X/SDK_2_9_0_MEK-MIMX8QX/devices/MIMX8QX6/drivers/fsl_lpspi.c.obj
LOAD CMakeFiles/freertos_hello.elf.dir/home/ben/Toradex/LinuxDevelop/FreeRTOS/Colibri-iMX8X/SDK_2_9_0_MEK-MIMX8QX/devices/MIMX8QX6/drivers/fsl_lpspi_freertos.c.obj
LOAD CMakeFiles/freertos_hello.elf.dir/home/ben/Toradex/LinuxDevelop/FreeRTOS/Colibri-iMX8X/SDK_2_9_0_MEK-MIMX8QX/rtos/freertos/freertos_kernel/event_groups.c.obj
LOAD CMakeFiles/freertos_hello.elf.dir/home/ben/Toradex/LinuxDevelop/FreeRTOS/Colibri-iMX8X/SDK_2_9_0_MEK-MIMX8QX/rtos/freertos/freertos_kernel/croutine.c.obj
LOAD CMakeFiles/freertos_hello.elf.dir/home/ben/Toradex/LinuxDevelop/FreeRTOS/Colibri-iMX8X/SDK_2_9_0_MEK-MIMX8QX/rtos/freertos/freertos_kernel/list.c.obj
LOAD CMakeFiles/freertos_hello.elf.dir/home/ben/Toradex/LinuxDevelop/FreeRTOS/Colibri-iMX8X/SDK_2_9_0_MEK-MIMX8QX/rtos/freertos/freertos_kernel/portable/GCC/ARM_CM4F/port.c.obj
LOAD CMakeFiles/freertos_hello.elf.dir/home/ben/Toradex/LinuxDevelop/FreeRTOS/Colibri-iMX8X/SDK_2_9_0_MEK-MIMX8QX/rtos/freertos/freertos_kernel/queue.c.obj
LOAD CMakeFiles/freertos_hello.elf.dir/home/ben/Toradex/LinuxDevelop/FreeRTOS/Colibri-iMX8X/SDK_2_9_0_MEK-MIMX8QX/rtos/freertos/freertos_kernel/stream_buffer.c.obj
LOAD CMakeFiles/freertos_hello.elf.dir/home/ben/Toradex/LinuxDevelop/FreeRTOS/Colibri-iMX8X/SDK_2_9_0_MEK-MIMX8QX/rtos/freertos/freertos_kernel/tasks.c.obj
LOAD CMakeFiles/freertos_hello.elf.dir/home/ben/Toradex/LinuxDevelop/FreeRTOS/Colibri-iMX8X/SDK_2_9_0_MEK-MIMX8QX/rtos/freertos/freertos_kernel/timers.c.obj
LOAD CMakeFiles/freertos_hello.elf.dir/home/ben/Toradex/LinuxDevelop/FreeRTOS/Colibri-iMX8X/SDK_2_9_0_MEK-MIMX8QX/rtos/freertos/freertos_kernel/portable/MemMang/heap_4.c.obj
LOAD CMakeFiles/freertos_hello.elf.dir/home/ben/Toradex/LinuxDevelop/FreeRTOS/Colibri-iMX8X/SDK_2_9_0_MEK-MIMX8QX/devices/MIMX8QX6/utilities/str/fsl_str.c.obj
LOAD CMakeFiles/freertos_hello.elf.dir/home/ben/Toradex/LinuxDevelop/FreeRTOS/Colibri-iMX8X/SDK_2_9_0_MEK-MIMX8QX/devices/MIMX8QX6/utilities/debug_console/fsl_debug_console.c.obj
LOAD CMakeFiles/freertos_hello.elf.dir/home/ben/Toradex/LinuxDevelop/FreeRTOS/Colibri-iMX8X/SDK_2_9_0_MEK-MIMX8QX/components/serial_manager/fsl_component_serial_manager.c.obj
LOAD CMakeFiles/freertos_hello.elf.dir/home/ben/Toradex/LinuxDevelop/FreeRTOS/Colibri-iMX8X/SDK_2_9_0_MEK-MIMX8QX/components/serial_manager/fsl_component_serial_port_uart.c.obj
LOAD CMakeFiles/freertos_hello.elf.dir/home/ben/Toradex/LinuxDevelop/FreeRTOS/Colibri-iMX8X/SDK_2_9_0_MEK-MIMX8QX/devices/MIMX8QX6/drivers/fsl_lpuart.c.obj
LOAD CMakeFiles/freertos_hello.elf.dir/home/ben/Toradex/LinuxDevelop/FreeRTOS/Colibri-iMX8X/SDK_2_9_0_MEK-MIMX8QX/components/uart/fsl_adapter_lpuart.c.obj
LOAD CMakeFiles/freertos_hello.elf.dir/home/ben/Toradex/LinuxDevelop/FreeRTOS/Colibri-iMX8X/SDK_2_9_0_MEK-MIMX8QX/components/lists/fsl_component_generic_list.c.obj
LOAD CMakeFiles/freertos_hello.elf.dir/home/ben/Toradex/LinuxDevelop/FreeRTOS/Colibri-iMX8X/SDK_2_9_0_MEK-MIMX8QX/devices/MIMX8QX6/gcc/startup_MIMX8QX6_cm4.S.obj
LOAD CMakeFiles/freertos_hello.elf.dir/home/ben/Toradex/LinuxDevelop/FreeRTOS/Colibri-iMX8X/SDK_2_9_0_MEK-MIMX8QX/devices/MIMX8QX6/system_MIMX8QX6_cm4.c.obj
LOAD CMakeFiles/freertos_hello.elf.dir/home/ben/Toradex/LinuxDevelop/FreeRTOS/Colibri-iMX8X/SDK_2_9_0_MEK-MIMX8QX/devices/MIMX8QX6/drivers/fsl_gpio.c.obj
LOAD CMakeFiles/freertos_hello.elf.dir/home/ben/Toradex/LinuxDevelop/FreeRTOS/Colibri-iMX8X/SDK_2_9_0_MEK-MIMX8QX/devices/MIMX8QX6/utilities/fsl_assert.c.obj
LOAD CMakeFiles/freertos_hello.elf.dir/home/ben/Toradex/LinuxDevelop/FreeRTOS/Colibri-iMX8X/SDK_2_9_0_MEK-MIMX8QX/devices/MIMX8QX6/utilities/fsl_sbrk.c.obj
START GROUP
LOAD /home/ben/Toradex/LinuxDevelop/FreeRTOS/Colibri-iMX8X/gcc-arm-none-eabi-9-2020-q2-update/bin/../lib/gcc/arm-none-eabi/9.3.1/../../../../arm-none-eabi/lib/thumb/v7e-m+fp/hard/libm.a
LOAD /home/ben/Toradex/LinuxDevelop/FreeRTOS/Colibri-iMX8X/gcc-arm-none-eabi-9-2020-q2-update/bin/../lib/gcc/arm-none-eabi/9.3.1/../../../../arm-none-eabi/lib/thumb/v7e-m+fp/hard/libc_nano.a
LOAD /home/ben/Toradex/LinuxDevelop/FreeRTOS/Colibri-iMX8X/gcc-arm-none-eabi-9-2020-q2-update/bin/../lib/gcc/arm-none-eabi/9.3.1/thumb/v7e-m+fp/hard/libgcc.a
LOAD /home/ben/Toradex/LinuxDevelop/FreeRTOS/Colibri-iMX8X/gcc-arm-none-eabi-9-2020-q2-update/bin/../lib/gcc/arm-none-eabi/9.3.1/../../../../arm-none-eabi/lib/thumb/v7e-m+fp/hard/libnosys.a
END GROUP
START GROUP
LOAD /home/ben/Toradex/LinuxDevelop/FreeRTOS/Colibri-iMX8X/gcc-arm-none-eabi-9-2020-q2-update/bin/../lib/gcc/arm-none-eabi/9.3.1/thumb/v7e-m+fp/hard/libgcc.a
LOAD /home/ben/Toradex/LinuxDevelop/FreeRTOS/Colibri-iMX8X/gcc-arm-none-eabi-9-2020-q2-update/bin/../lib/gcc/arm-none-eabi/9.3.1/../../../../arm-none-eabi/lib/thumb/v7e-m+fp/hard/libc_nano.a
END GROUP
START GROUP
LOAD /home/ben/Toradex/LinuxDevelop/FreeRTOS/Colibri-iMX8X/gcc-arm-none-eabi-9-2020-q2-update/bin/../lib/gcc/arm-none-eabi/9.3.1/thumb/v7e-m+fp/hard/libgcc.a
LOAD /home/ben/Toradex/LinuxDevelop/FreeRTOS/Colibri-iMX8X/gcc-arm-none-eabi-9-2020-q2-update/bin/../lib/gcc/arm-none-eabi/9.3.1/../../../../arm-none-eabi/lib/thumb/v7e-m+fp/hard/libc_nano.a
LOAD /home/ben/Toradex/LinuxDevelop/FreeRTOS/Colibri-iMX8X/gcc-arm-none-eabi-9-2020-q2-update/bin/../lib/gcc/arm-none-eabi/9.3.1/../../../../arm-none-eabi/lib/thumb/v7e-m+fp/hard/libnosys.a
END GROUP
START GROUP
LOAD /home/ben/Toradex/LinuxDevelop/FreeRTOS/Colibri-iMX8X/gcc-arm-none-eabi-9-2020-q2-update/bin/../lib/gcc/arm-none-eabi/9.3.1/thumb/v7e-m+fp/hard/libgcc.a
LOAD /home/ben/Toradex/LinuxDevelop/FreeRTOS/Colibri-iMX8X/gcc-arm-none-eabi-9-2020-q2-update/bin/../lib/gcc/arm-none-eabi/9.3.1/../../../../arm-none-eabi/lib/thumb/v7e-m+fp/hard/libc_nano.a
LOAD /home/ben/Toradex/LinuxDevelop/FreeRTOS/Colibri-iMX8X/gcc-arm-none-eabi-9-2020-q2-update/bin/../lib/gcc/arm-none-eabi/9.3.1/../../../../arm-none-eabi/lib/thumb/v7e-m+fp/hard/libnosys.a
END GROUP
LOAD /home/ben/Toradex/LinuxDevelop/FreeRTOS/Colibri-iMX8X/gcc-arm-none-eabi-9-2020-q2-update/bin/../lib/gcc/arm-none-eabi/9.3.1/thumb/v7e-m+fp/hard/crtend.o
LOAD /home/ben/Toradex/LinuxDevelop/FreeRTOS/Colibri-iMX8X/gcc-arm-none-eabi-9-2020-q2-update/bin/../lib/gcc/arm-none-eabi/9.3.1/thumb/v7e-m+fp/hard/crtn.o
                0x0000000000000400                HEAP_SIZE = DEFINED (__heap_size__)?__heap_size__:0x400
                0x0000000000000400                STACK_SIZE = DEFINED (__stack_size__)?__stack_size__:0x400

.interrupts     0x000000001ffe0000      0xa00
                0x000000001ffe0000                . = ALIGN (0x8)
 *(.isr_vector)
 .isr_vector    0x000000001ffe0000      0xa00 CMakeFiles/freertos_hello.elf.dir/home/ben/Toradex/LinuxDevelop/FreeRTOS/Colibri-iMX8X/SDK_2_9_0_MEK-MIMX8QX/devices/MIMX8QX6/gcc/startup_MIMX8QX6_cm4.S.obj
                0x000000001ffe0000                __isr_vector
                0x000000001ffe0a00                . = ALIGN (0x8)

.resource_table
                0x000000001ffe0a00       0x10
                0x000000001ffe0a00                . = ALIGN (0x8)
 *(.resource_table)
 .resource_table
                0x000000001ffe0a00       0x10 CMakeFiles/freertos_hello.elf.dir/home/ben/Toradex/LinuxDevelop/FreeRTOS/Colibri-iMX8X/SDK_2_9_0_MEK-MIMX8QX/boards/mekmimx8qx/rtos_examples/freertos_lpspi/empty_rsc_table.c.obj
                0x000000001ffe0a00                resource_table
                0x000000001ffe0a10                . = ALIGN (0x8)

.text           0x000000001ffe0a10     0x3e90
                0x000000001ffe0a10                . = ALIGN (0x8)
 *(.text)
 .text          0x000000001ffe0a10       0x40 /home/ben/Toradex/LinuxDevelop/FreeRTOS/Colibri-iMX8X/gcc-arm-none-eabi-9-2020-q2-update/bin/../lib/gcc/arm-none-eabi/9.3.1/thumb/v7e-m+fp/hard/crtbegin.o
 .text          0x000000001ffe0a50       0x7c /home/ben/Toradex/LinuxDevelop/FreeRTOS/Colibri-iMX8X/gcc-arm-none-eabi-9-2020-q2-update/bin/../lib/gcc/arm-none-eabi/9.3.1/../../../../arm-none-eabi/lib/thumb/v7e-m+fp/hard/crt0.o
                0x000000001ffe0a50                _stack_init
                0x000000001ffe0a58                _mainCRTStartup
                0x000000001ffe0a58                _start
 .text          0x000000001ffe0acc      0x564 CMakeFiles/freertos_hello.elf.dir/home/ben/Toradex/LinuxDevelop/FreeRTOS/Colibri-iMX8X/SDK_2_9_0_MEK-MIMX8QX/devices/MIMX8QX6/gcc/startup_MIMX8QX6_cm4.S.obj
                0x000000001ffe0acc                Reset_Handler
                0x000000001ffe0b8c                Reserved18_IRQHandler
                0x000000001ffe0b8c                Reserved96_IRQHandler
                0x000000001ffe0b8c                IMAGING_MJPEG_DEC2_INT_IRQHandler
                0x000000001ffe0b8c                CONNECTIVITY_USB3_INT_IRQHandler
                0x000000001ffe0b8c                LSIO_MU10_INT_B_IRQHandler
                0x000000001ffe0b8c                Reserved512_IRQHandler
                0x000000001ffe0b8c                CONNECTIVITY_USDHC1_INT_DriverIRQHandler
                0x000000001ffe0b8c                Reserved134_IRQHandler
                0x000000001ffe0b8c                ADMA_GPT3_INT_DriverIRQHandler
                0x000000001ffe0b8c                LSIO_MU2_INT_IRQHandler
                0x000000001ffe0b8c                Reserved16_IRQHandler
                0x000000001ffe0b8c                ADMA_ADC0_INT_DriverIRQHandler
                0x000000001ffe0b8c                Reserved448_IRQHandler
                0x000000001ffe0b8c                Reserved111_IRQHandler
                0x000000001ffe0b8c                DebugMon_Handler
                0x000000001ffe0b8c                IRQSTEER_1_DriverIRQHandler
                0x000000001ffe0b8c                Reserved178_IRQHandler
                0x000000001ffe0b8c                Reserved88_IRQHandler
                0x000000001ffe0b8c                DRC_SBR_DONE_INT_IRQHandler
                0x000000001ffe0b8c                ADMA_EDMA1_INT_DriverIRQHandler
                0x000000001ffe0b8c                Reserved243_IRQHandler
                0x000000001ffe0b8c                SECURITY_MU2_A_INT_IRQHandler
                0x000000001ffe0b8c                M4_MU0_B3_IRQHandler
                0x000000001ffe0b8c                ADMA_SPDIF0_RX_MOD_INT_DriverIRQHandler
                0x000000001ffe0b8c                Reserved347_IRQHandler
                0x000000001ffe0b8c                Reserved153_IRQHandler
                0x000000001ffe0b8c                DISPLAY0_INT_OUT1_IRQHandler
                0x000000001ffe0b8c                ADMA_I2C2_MOD_INT_DriverIRQHandler
                0x000000001ffe0b8c                ADMA_SPDIF0_TX_INT_DriverIRQHandler
                0x000000001ffe0b8c                LSIO_MU13_INT_B_IRQHandler
                0x000000001ffe0b8c                ADMA_UART1_MOD_INT_DriverIRQHandler
                0x000000001ffe0b8c                HSIO_PCIEB_DMA_INT_DriverIRQHandler
                0x000000001ffe0b8c                Reserved76_IRQHandler
                0x000000001ffe0b8c                Reserved86_IRQHandler
                0x000000001ffe0b8c                Reserved295_IRQHandler
                0x000000001ffe0b8c                Reserved506_IRQHandler
                0x000000001ffe0b8c                LSIO_PWM1_INT_IRQHandler
                0x000000001ffe0b8c                Reserved248_IRQHandler
                0x000000001ffe0b8c                Reserved85_IRQHandler
                0x000000001ffe0b8c                Reserved64_IRQHandler
                0x000000001ffe0b8c                Reserved376_IRQHandler
                0x000000001ffe0b8c                Reserved234_IRQHandler
                0x000000001ffe0b8c                Reserved225_IRQHandler
                0x000000001ffe0b8c                ADMA_ESAI0_INT_DriverIRQHandler
                0x000000001ffe0b8c                M4_INTMUX_SOURCE_MU0_A2_DriverIRQHandler
                0x000000001ffe0b8c                ADMA_SAI1_MOD_INT_DriverIRQHandler
                0x000000001ffe0b8c                Reserved188_IRQHandler
                0x000000001ffe0b8c                Reserved545_IRQHandler
                0x000000001ffe0b8c                IRQSTEER_5_DriverIRQHandler
                0x000000001ffe0b8c                Reserved103_IRQHandler
                0x000000001ffe0b8c                ADMA_SAI3_INT_DriverIRQHandler
                0x000000001ffe0b8c                IMAGING_MJPEG_DEC1_INT_IRQHandler
                0x000000001ffe0b8c                Reserved308_IRQHandler
                0x000000001ffe0b8c                Reserved293_IRQHandler
                0x000000001ffe0b8c                IRQSTEER_4_DriverIRQHandler
                0x000000001ffe0b8c                Reserved114_IRQHandler
                0x000000001ffe0b8c                ADMA_I2C3_MOD_INT_DriverIRQHandler
                0x000000001ffe0b8c                LSIO_MU6_INT_B_IRQHandler
                0x000000001ffe0b8c                Reserved604_IRQHandler
                0x000000001ffe0b8c                SCU_INT_OUT4_IRQHandler
                0x000000001ffe0b8c                Reserved19_IRQHandler
                0x000000001ffe0b8c                LSIO_GPIO_INT3_IRQHandler
                0x000000001ffe0b8c                Reserved578_IRQHandler
                0x000000001ffe0b8c                LSIO_MU8_INT_A_IRQHandler
                0x000000001ffe0b8c                Reserved74_IRQHandler
                0x000000001ffe0b8c                Reserved89_IRQHandler
                0x000000001ffe0b8c                LSIO_KPP_INT_IRQHandler
                0x000000001ffe0b8c                Reserved59_IRQHandler
                0x000000001ffe0b8c                ADMA_SAI0_INT_DriverIRQHandler
                0x000000001ffe0b8c                Reserved79_IRQHandler
                0x000000001ffe0b8c                Reserved137_IRQHandler
                0x000000001ffe0b8c                DISPLAY0_INT_OUT9_IRQHandler
                0x000000001ffe0b8c                LSIO_MU11_INT_B_IRQHandler
                0x000000001ffe0b8c                Reserved29_IRQHandler
                0x000000001ffe0b8c                Reserved272_IRQHandler
                0x000000001ffe0b8c                IMAGING_PDMA_STREAM3_INT_DriverIRQHandler
                0x000000001ffe0b8c                Reserved263_IRQHandler
                0x000000001ffe0b8c                SCU_SYS_COUNT_INT3_IRQHandler
                0x000000001ffe0b8c                M4_INTMUX_SOURCE_LPIT_DriverIRQHandler
                0x000000001ffe0b8c                Reserved571_IRQHandler
                0x000000001ffe0b8c                ADMA_FLEXCAN1_INT_DriverIRQHandler
                0x000000001ffe0b8c                ADMA_I2C0_INT_DriverIRQHandler
                0x000000001ffe0b8c                ADMA_UART3_MOD_INT_DriverIRQHandler
                0x000000001ffe0b8c                SECURITY_MU1_A_INT_IRQHandler
                0x000000001ffe0b8c                Reserved309_IRQHandler
                0x000000001ffe0b8c                DISPLAY0_INT_OUT2_IRQHandler
                0x000000001ffe0b8c                Reserved68_IRQHandler
                0x000000001ffe0b8c                IMAGING_MJPEG_DEC0_INT_IRQHandler
                0x000000001ffe0b8c                Reserved77_IRQHandler
                0x000000001ffe0b8c                Reserved559_IRQHandler
                0x000000001ffe0b8c                Reserved424_IRQHandler
                0x000000001ffe0b8c                Reserved560_IRQHandler
                0x000000001ffe0b8c                Reserved84_IRQHandler
                0x000000001ffe0b8c                Reserved381_IRQHandler
                0x000000001ffe0b8c                LSIO_MU4_INT_IRQHandler
                0x000000001ffe0b8c                Reserved426_IRQHandler
                0x000000001ffe0b8c                Reserved450_IRQHandler
                0x000000001ffe0b8c                Reserved155_IRQHandler
                0x000000001ffe0b8c                Reserved157_IRQHandler
                0x000000001ffe0b8c                IMAGING_MJPEG_ENC3_INT_IRQHandler
                0x000000001ffe0b8c                Reserved92_IRQHandler
                0x000000001ffe0b8c                ADMA_SAI4_INT_DriverIRQHandler
                0x000000001ffe0b8c                M4_MU0_B1_IRQHandler
                0x000000001ffe0b8c                IMAGING_PDMA_STREAM5_INT_DriverIRQHandler
                0x000000001ffe0b8c                Reserved42_IRQHandler
                0x000000001ffe0b8c                Reserved36_IRQHandler
                0x000000001ffe0b8c                Reserved22_IRQHandler
                0x000000001ffe0b8c                CONNECTIVITY_ENET1_FRAME1_INT_DriverIRQHandler
                0x000000001ffe0b8c                SCU_INT_OUT3_IRQHandler
                0x000000001ffe0b8c                Reserved75_IRQHandler
                0x000000001ffe0b8c                DRC_ECC_NCORRECT_INT_IRQHandler
                0x000000001ffe0b8c                Reserved280_IRQHandler
                0x000000001ffe0b8c                LSIO_MU7_INT_A_IRQHandler
                0x000000001ffe0b8c                Reserved268_IRQHandler
                0x000000001ffe0b8c                LSIO_PWM2_INT_IRQHandler
                0x000000001ffe0b8c                ADMA_SAI5_INT_DriverIRQHandler
                0x000000001ffe0b8c                Reserved176_IRQHandler
                0x000000001ffe0b8c                Reserved294_IRQHandler
                0x000000001ffe0b8c                ADMA_FLEXCAN2_INT_DriverIRQHandler
                0x000000001ffe0b8c                Reserved233_IRQHandler
                0x000000001ffe0b8c                ADMA_UART2_MOD_INT_DriverIRQHandler
                0x000000001ffe0b8c                Reserved596_IRQHandler
                0x000000001ffe0b8c                Reserved224_IRQHandler
                0x000000001ffe0b8c                Reserved489_IRQHandler
                0x000000001ffe0b8c                Reserved39_IRQHandler
                0x000000001ffe0b8c                Reserved427_IRQHandler
                0x000000001ffe0b8c                Reserved310_IRQHandler
                0x000000001ffe0b8c                DRC_PERF_CNT_INT_IRQHandler
                0x000000001ffe0b8c                VPU_VPU_INT_0_IRQHandler
                0x000000001ffe0b8c                UsageFault_Handler
                0x000000001ffe0b8c                Reserved562_IRQHandler
                0x000000001ffe0b8c                ADMA_ASRC0_INT2_DriverIRQHandler
                0x000000001ffe0b8c                Reserved265_IRQHandler
                0x000000001ffe0b8c                LSIO_MU9_INT_A_IRQHandler
                0x000000001ffe0b8c                Reserved330_IRQHandler
                0x000000001ffe0b8c                Reserved156_IRQHandler
                0x000000001ffe0b8c                M4_INTMUX_SOURCE_TPM_DriverIRQHandler
                0x000000001ffe0b8c                LSIO_MU11_INT_A_IRQHandler
                0x000000001ffe0b8c                Reserved57_IRQHandler
                0x000000001ffe0b8c                Reserved257_IRQHandler
                0x000000001ffe0b8c                ADMA_SPI0_MOD_INT_DriverIRQHandler
                0x000000001ffe0b8c                Reserved500_IRQHandler
                0x000000001ffe0b8c                ADMA_FLEXCAN1_MOD_INT_DriverIRQHandler
                0x000000001ffe0b8c                VPU_VPU_INT_1_IRQHandler
                0x000000001ffe0b8c                DefaultISR
                0x000000001ffe0b8c                MIPI_DSI0_INT_OUT_DriverIRQHandler
                0x000000001ffe0b8c                Reserved250_IRQHandler
                0x000000001ffe0b8c                Reserved34_IRQHandler
                0x000000001ffe0b8c                Reserved58_IRQHandler
                0x000000001ffe0b8c                Reserved264_IRQHandler
                0x000000001ffe0b8c                Reserved261_IRQHandler
                0x000000001ffe0b8c                ADMA_SPI2_MOD_INT_DriverIRQHandler
                0x000000001ffe0b8c                Reserved392_IRQHandler
                0x000000001ffe0b8c                Reserved82_IRQHandler
                0x000000001ffe0b8c                Reserved25_IRQHandler
                0x000000001ffe0b8c                Reserved298_IRQHandler
                0x000000001ffe0b8c                Reserved24_IRQHandler
                0x000000001ffe0b8c                Reserved582_IRQHandler
                0x000000001ffe0b8c                Reserved581_IRQHandler
                0x000000001ffe0b8c                Reserved129_IRQHandler
                0x000000001ffe0b8c                Reserved591_IRQHandler
                0x000000001ffe0b8c                Reserved267_IRQHandler
                0x000000001ffe0b8c                Reserved71_IRQHandler
                0x000000001ffe0b8c                LSIO_PWM4_INT_IRQHandler
                0x000000001ffe0b8c                Reserved177_IRQHandler
                0x000000001ffe0b8c                Reserved69_IRQHandler
                0x000000001ffe0b8c                Reserved132_IRQHandler
                0x000000001ffe0b8c                DISPLAY0_INT_OUT12_IRQHandler
                0x000000001ffe0b8c                IRQSTEER_2_DriverIRQHandler
                0x000000001ffe0b8c                ADMA_EDMA3_INT_DriverIRQHandler
                0x000000001ffe0b8c                SCU_SYS_COUNT_INT2_IRQHandler
                0x000000001ffe0b8c                Reserved33_IRQHandler
                0x000000001ffe0b8c                ADMA_I2C3_INT_DriverIRQHandler
                0x000000001ffe0b8c                ADMA_GPT4_INT_DriverIRQHandler
                0x000000001ffe0b8c                ADMA_SPDIF0_TX_MOD_INT_DriverIRQHandler
                0x000000001ffe0b8c                Reserved253_IRQHandler
                0x000000001ffe0b8c                Reserved449_IRQHandler
                0x000000001ffe0b8c                Reserved164_IRQHandler
                0x000000001ffe0b8c                Reserved274_IRQHandler
                0x000000001ffe0b8c                Reserved70_IRQHandler
                0x000000001ffe0b8c                HSIO_PCIEB_MSI_CTRL_INT_IRQHandler
                0x000000001ffe0b8c                LSIO_GPT0_INT_IRQHandler
                0x000000001ffe0b8c                Reserved590_IRQHandler
                0x000000001ffe0b8c                M4_INT_OUT4_IRQHandler
                0x000000001ffe0b8c                SCU_SYS_COUNT_INT0_IRQHandler
                0x000000001ffe0b8c                Reserved377_IRQHandler
                0x000000001ffe0b8c                MIPI_CSI0_OUT_INT_IRQHandler
                0x000000001ffe0b8c                LSIO_GPT3_INT_IRQHandler
                0x000000001ffe0b8c                ADMA_EDMA0_INT_DriverIRQHandler
                0x000000001ffe0b8c                Reserved232_IRQHandler
                0x000000001ffe0b8c                Reserved389_IRQHandler
                0x000000001ffe0b8c                HSIO_PCIEB_INT_D_IRQHandler
                0x000000001ffe0b8c                LSIO_PWM5_INT_IRQHandler
                0x000000001ffe0b8c                LSIO_GPIO_INT5_IRQHandler
                0x000000001ffe0b8c                Reserved510_IRQHandler
                0x000000001ffe0b8c                CONNECTIVITY_ENET0_FRAME0_EVENT_INT_DriverIRQHandler
                0x000000001ffe0b8c                DISPLAY0_INT_OUT10_IRQHandler
                0x000000001ffe0b8c                Reserved128_IRQHandler
                0x000000001ffe0b8c                Reserved78_IRQHandler
                0x000000001ffe0b8c                LSIO_OCTASPI0_INT_DriverIRQHandler
                0x000000001ffe0b8c                Reserved501_IRQHandler
                0x000000001ffe0b8c                IMAGING_PDMA_STREAM2_INT_DriverIRQHandler
                0x000000001ffe0b8c                Reserved606_IRQHandler
                0x000000001ffe0b8c                Reserved95_IRQHandler
                0x000000001ffe0b8c                LSIO_PWM6_INT_IRQHandler
                0x000000001ffe0b8c                Reserved384_IRQHandler
                0x000000001ffe0b8c                Reserved27_IRQHandler
                0x000000001ffe0b8c                Reserved154_IRQHandler
                0x000000001ffe0b8c                LSIO_GPIO_INT1_IRQHandler
                0x000000001ffe0b8c                LSIO_MU12_INT_A_IRQHandler
                0x000000001ffe0b8c                Reserved126_IRQHandler
                0x000000001ffe0b8c                Reserved561_IRQHandler
                0x000000001ffe0b8c                IMAGING_PDMA_STREAM6_INT_DriverIRQHandler
                0x000000001ffe0b8c                M4_TPM_IRQHandler
                0x000000001ffe0b8c                Reserved256_IRQHandler
                0x000000001ffe0b8c                DISPLAY0_INT_OUT3_IRQHandler
                0x000000001ffe0b8c                ADMA_SAI4_MOD_INT_DriverIRQHandler
                0x000000001ffe0b8c                Reserved252_IRQHandler
                0x000000001ffe0b8c                M4_SW_IRQHandler
                0x000000001ffe0b8c                Reserved579_IRQHandler
                0x000000001ffe0b8c                SECURITY_MU3_A_INT_IRQHandler
                0x000000001ffe0b8c                IMAGING_MSI_INT_IRQHandler
                0x000000001ffe0b8c                Reserved532_IRQHandler
                0x000000001ffe0b8c                Reserved297_IRQHandler
                0x000000001ffe0b8c                LSIO_GPIO_INT7_IRQHandler
                0x000000001ffe0b8c                Reserved172_IRQHandler
                0x000000001ffe0b8c                M4_MU0_B0_IRQHandler
                0x000000001ffe0b8c                M4_INT_OUT3_IRQHandler
                0x000000001ffe0b8c                Reserved108_IRQHandler
                0x000000001ffe0b8c                M4_MCM_IRQHandler
                0x000000001ffe0b8c                ADMA_FTM0_MOD_INT_DriverIRQHandler
                0x000000001ffe0b8c                LSIO_MU8_INT_B_IRQHandler
                0x000000001ffe0b8c                Reserved72_IRQHandler
                0x000000001ffe0b8c                ADMA_ASRC0_INT1_DriverIRQHandler
                0x000000001ffe0b8c                Reserved585_IRQHandler
                0x000000001ffe0b8c                Reserved259_IRQHandler
                0x000000001ffe0b8c                Reserved296_IRQHandler
                0x000000001ffe0b8c                DISPLAY0_INT_OUT4_IRQHandler
                0x000000001ffe0b8c                Reserved110_IRQHandler
                0x000000001ffe0b8c                Reserved187_IRQHandler
                0x000000001ffe0b8c                DISPLAY0_INT_OUT11_IRQHandler
                0x000000001ffe0b8c                Reserved174_IRQHandler
                0x000000001ffe0b8c                Reserved464_IRQHandler
                0x000000001ffe0b8c                Reserved603_IRQHandler
                0x000000001ffe0b8c                Reserved382_IRQHandler
                0x000000001ffe0b8c                LSIO_OCTASPI1_INT_DriverIRQHandler
                0x000000001ffe0b8c                Reserved20_IRQHandler
                0x000000001ffe0b8c                Reserved249_IRQHandler
                0x000000001ffe0b8c                Reserved107_IRQHandler
                0x000000001ffe0b8c                Reserved352_IRQHandler
                0x000000001ffe0b8c                Reserved37_IRQHandler
                0x000000001ffe0b8c                CONNECTIVITY_USB_OTG_INT_IRQHandler
                0x000000001ffe0b8c                Reserved173_IRQHandler
                0x000000001ffe0b8c                ADMA_SPI3_MOD_INT_DriverIRQHandler
                0x000000001ffe0b8c                Reserved125_IRQHandler
                0x000000001ffe0b8c                ADMA_ASRC1_INT2_DriverIRQHandler
                0x000000001ffe0b8c                M4_INTMUX_SOURCE_LPUART_DriverIRQHandler
                0x000000001ffe0b8c                IMAGING_MJPEG_DEC3_INT_IRQHandler
                0x000000001ffe0b8c                M4_INTMUX_SOURCE_MU0_A1_DriverIRQHandler
                0x000000001ffe0b8c                Reserved98_IRQHandler
                0x000000001ffe0b8c                Reserved17_IRQHandler
                0x000000001ffe0b8c                CONNECTIVITY_USDHC2_INT_DriverIRQHandler
                0x000000001ffe0b8c                CONNECTIVITY_ND_FLASH_GPMI_INT_IRQHandler
                0x000000001ffe0b8c                ADMA_FTM1_INT_DriverIRQHandler
                0x000000001ffe0b8c                IMAGING_PDMA_STREAM4_INT_DriverIRQHandler
                0x000000001ffe0b8c                Reserved189_IRQHandler
                0x000000001ffe0b8c                Reserved443_IRQHandler
                0x000000001ffe0b8c                SCU_INT_OUT6_IRQHandler
                0x000000001ffe0b8c                Reserved595_IRQHandler
                0x000000001ffe0b8c                Reserved47_IRQHandler
                0x000000001ffe0b8c                Reserved271_IRQHandler
                0x000000001ffe0b8c                Reserved258_IRQHandler
                0x000000001ffe0b8c                ADMA_EDMA2_INT_DriverIRQHandler
                0x000000001ffe0b8c                Reserved102_IRQHandler
                0x000000001ffe0b8c                M4_INT_OUT5_IRQHandler
                0x000000001ffe0b8c                IMAGING_PDMA_STREAM0_INT_DriverIRQHandler
                0x000000001ffe0b8c                Reserved599_IRQHandler
                0x000000001ffe0b8c                CONNECTIVITY_UTMI_INT_IRQHandler
                0x000000001ffe0b8c                Reserved32_IRQHandler
                0x000000001ffe0b8c                Reserved311_IRQHandler
                0x000000001ffe0b8c                Reserved354_IRQHandler
                0x000000001ffe0b8c                Reserved542_IRQHandler
                0x000000001ffe0b8c                Reserved190_IRQHandler
                0x000000001ffe0b8c                Reserved231_IRQHandler
                0x000000001ffe0b8c                Reserved282_IRQHandler
                0x000000001ffe0b8c                Reserved260_IRQHandler
                0x000000001ffe0b8c                Reserved386_IRQHandler
                0x000000001ffe0b8c                Reserved513_IRQHandler
                0x000000001ffe0b8c                DISPLAY0_INT_OUT6_IRQHandler
                0x000000001ffe0b8c                Reserved594_IRQHandler
                0x000000001ffe0b8c                Reserved105_IRQHandler
                0x000000001ffe0b8c                SECURITY_CAAM_RTIC_INT_IRQHandler
                0x000000001ffe0b8c                Reserved573_IRQHandler
                0x000000001ffe0b8c                ADMA_UART0_MOD_INT_DriverIRQHandler
                0x000000001ffe0b8c                Reserved269_IRQHandler
                0x000000001ffe0b8c                Reserved570_IRQHandler
                0x000000001ffe0b8c                IMAGING_MJPEG_ENC0_INT_IRQHandler
                0x000000001ffe0b8c                Reserved104_IRQHandler
                0x000000001ffe0b8c                Reserved31_IRQHandler
                0x000000001ffe0b8c                LSIO_MU10_INT_A_IRQHandler
                0x000000001ffe0b8c                Reserved101_IRQHandler
                0x000000001ffe0b8c                Reserved223_IRQHandler
                0x000000001ffe0b8c                HSIO_PCIEB_GPIO_WAKEUP0_IRQHandler
                0x000000001ffe0b8c                SCU_INT_OUT7_IRQHandler
                0x000000001ffe0b8c                Reserved569_IRQHandler
                0x000000001ffe0b8c                CONNECTIVITY_USDHC0_INT_DriverIRQHandler
                0x000000001ffe0b8c                ADMA_FTM1_MOD_INT_DriverIRQHandler
                0x000000001ffe0b8c                ADMA_ASRC1_INT1_DriverIRQHandler
                0x000000001ffe0b8c                HSIO_PCIEB_GPIO_WAKEUP1_IRQHandler
                0x000000001ffe0b8c                Reserved135_IRQHandler
                0x000000001ffe0b8c                IMAGING_MJPEG_ENC1_INT_IRQHandler
                0x000000001ffe0b8c                CONNECTIVITY_USB_HOST_INT_IRQHandler
                0x000000001ffe0b8c                A35_NEXTERRIRQ_IRQHandler
                0x000000001ffe0b8c                CONNECTIVITY_ENET0_FRAME1_INT_DriverIRQHandler
                0x000000001ffe0b8c                M4_INT_OUT2_IRQHandler
                0x000000001ffe0b8c                CONNECTIVITY_ENET0_FRAME2_INT_DriverIRQHandler
                0x000000001ffe0b8c                M4_INT_OUT6_IRQHandler
                0x000000001ffe0b8c                ADMA_SPDIF0_RX_INT_DriverIRQHandler
                0x000000001ffe0b8c                SECURITY_CAAM_INT2_IRQHandler
                0x000000001ffe0b8c                M4_LPIT_IRQHandler
                0x000000001ffe0b8c                Reserved511_IRQHandler
                0x000000001ffe0b8c                LSIO_MU13_INT_A_IRQHandler
                0x000000001ffe0b8c                CONNECTIVITY_MLB_AHB_INT_IRQHandler
                0x000000001ffe0b8c                MemManage_Handler
                0x000000001ffe0b8c                Reserved90_IRQHandler
                0x000000001ffe0b8c                HSIO_PCIEB_INT_B_IRQHandler
                0x000000001ffe0b8c                Reserved83_IRQHandler
                0x000000001ffe0b8c                LSIO_MU7_INT_B_IRQHandler
                0x000000001ffe0b8c                ADMA_GPT5_INT_DriverIRQHandler
                0x000000001ffe0b8c                Reserved133_IRQHandler
                0x000000001ffe0b8c                Reserved425_IRQHandler
                0x000000001ffe0b8c                CONNECTIVITY_DTCP_INT_IRQHandler
                0x000000001ffe0b8c                Reserved185_IRQHandler
                0x000000001ffe0b8c                Reserved421_IRQHandler
                0x000000001ffe0b8c                Reserved254_IRQHandler
                0x000000001ffe0b8c                Reserved109_IRQHandler
                0x000000001ffe0b8c                IRQSTEER_7_DriverIRQHandler
                0x000000001ffe0b8c                Reserved514_IRQHandler
                0x000000001ffe0b8c                Reserved379_IRQHandler
                0x000000001ffe0b8c                Reserved432_IRQHandler
                0x000000001ffe0b8c                Reserved244_IRQHandler
                0x000000001ffe0b8c                Reserved340_IRQHandler
                0x000000001ffe0b8c                Reserved255_IRQHandler
                0x000000001ffe0b8c                Reserved541_IRQHandler
                0x000000001ffe0b8c                Reserved420_IRQHandler
                0x000000001ffe0b8c                ADMA_SAI5_MOD_INT_DriverIRQHandler
                0x000000001ffe0b8c                Reserved160_IRQHandler
                0x000000001ffe0b8c                LSIO_PWM3_INT_IRQHandler
                0x000000001ffe0b8c                LSIO_GPT2_INT_IRQHandler
                0x000000001ffe0b8c                Reserved262_IRQHandler
                0x000000001ffe0b8c                Reserved171_IRQHandler
                0x000000001ffe0b8c                Reserved123_IRQHandler
                0x000000001ffe0b8c                DISPLAY0_INT_OUT7_IRQHandler
                0x000000001ffe0b8c                Reserved378_IRQHandler
                0x000000001ffe0b8c                ADMA_I2C2_INT_DriverIRQHandler
                0x000000001ffe0b8c                M4_INT_OUT1_IRQHandler
                0x000000001ffe0b8c                Reserved97_IRQHandler
                0x000000001ffe0b8c                LSIO_MU5_INT_A_IRQHandler
                0x000000001ffe0b8c                CONNECTIVITY_WAKEUP_INT_IRQHandler
                0x000000001ffe0b8c                Reserved91_IRQHandler
                0x000000001ffe0b8c                Reserved127_IRQHandler
                0x000000001ffe0b8c                ADMA_I2C1_INT_DriverIRQHandler
                0x000000001ffe0b8c                M4_INT_OUT7_IRQHandler
                0x000000001ffe0b8c                VPU_VPU_INT_4_IRQHandler
                0x000000001ffe0b8c                Reserved390_IRQHandler
                0x000000001ffe0b8c                Reserved391_IRQHandler
                0x000000001ffe0b8c                Reserved26_IRQHandler
                0x000000001ffe0b8c                Reserved152_IRQHandler
                0x000000001ffe0b8c                Reserved245_IRQHandler
                0x000000001ffe0b8c                LCD_MOD_INT_IRQHandler
                0x000000001ffe0b8c                GPU0_XAQ2_INTR_IRQHandler
                0x000000001ffe0b8c                Reserved131_IRQHandler
                0x000000001ffe0b8c                M4_INTMUX_SOURCE_MU0_A3_DriverIRQHandler
                0x000000001ffe0b8c                Reserved81_IRQHandler
                0x000000001ffe0b8c                M4_INTMUX_SOURCE_MU0_A0_DriverIRQHandler
                0x000000001ffe0b8c                Reserved251_IRQHandler
                0x000000001ffe0b8c                Reserved46_IRQHandler
                0x000000001ffe0b8c                Reserved273_IRQHandler
                0x000000001ffe0b8c                SECURITY_CAAM_INT0_IRQHandler
                0x000000001ffe0b8c                Reserved246_IRQHandler
                0x000000001ffe0b8c                Reserved314_IRQHandler
                0x000000001ffe0b8c                A35_NINTERRIRQ_IRQHandler
                0x000000001ffe0b8c                Reserved597_IRQHandler
                0x000000001ffe0b8c                M4_MU1_A_IRQHandler
                0x000000001ffe0b8c                Reserved598_IRQHandler
                0x000000001ffe0b8c                CONNECTIVITY_APBHDMA_DriverIRQHandler
                0x000000001ffe0b8c                Reserved394_IRQHandler
                0x000000001ffe0b8c                Reserved270_IRQHandler
                0x000000001ffe0b8c                Reserved23_IRQHandler
                0x000000001ffe0b8c                IMAGING_MJPEG_ENC2_INT_IRQHandler
                0x000000001ffe0b8c                Reserved266_IRQHandler
                0x000000001ffe0b8c                LSIO_MU1_INT_IRQHandler
                0x000000001ffe0b8c                Reserved94_IRQHandler
                0x000000001ffe0b8c                M4_MU0_B2_IRQHandler
                0x000000001ffe0b8c                Reserved226_IRQHandler
                0x000000001ffe0b8c                LSIO_PWM7_INT_IRQHandler
                0x000000001ffe0b8c                ADMA_I2C1_MOD_INT_DriverIRQHandler
                0x000000001ffe0b8c                Reserved488_IRQHandler
                0x000000001ffe0b8c                Reserved574_IRQHandler
                0x000000001ffe0b8c                Reserved323_IRQHandler
                0x000000001ffe0b8c                IRQSTEER_3_DriverIRQHandler
                0x000000001ffe0b8c                LSIO_MU0_INT_IRQHandler
                0x000000001ffe0b8c                ADMA_GPT2_INT_DriverIRQHandler
                0x000000001ffe0b8c                ADMA_FLEXCAN0_INT_DriverIRQHandler
                0x000000001ffe0b8c                Reserved136_IRQHandler
                0x000000001ffe0b8c                ADMA_GPT1_INT_DriverIRQHandler
                0x000000001ffe0b8c                Reserved138_IRQHandler
                0x000000001ffe0b8c                VPU_VPU_INT_3_IRQHandler
                0x000000001ffe0b8c                Reserved112_IRQHandler
                0x000000001ffe0b8c                Reserved587_IRQHandler
                0x000000001ffe0b8c                Reserved434_IRQHandler
                0x000000001ffe0b8c                Reserved30_IRQHandler
                0x000000001ffe0b8c                ADMA_SAI2_MOD_INT_DriverIRQHandler
                0x000000001ffe0b8c                Reserved73_IRQHandler
                0x000000001ffe0b8c                Reserved605_IRQHandler
                0x000000001ffe0b8c                HSIO_PCIEB_INT_A_IRQHandler
                0x000000001ffe0b8c                Reserved393_IRQHandler
                0x000000001ffe0b8c                Reserved130_IRQHandler
                0x000000001ffe0b8c                Reserved600_IRQHandler
                0x000000001ffe0b8c                Reserved546_IRQHandler
                0x000000001ffe0b8c                Reserved531_IRQHandler
                0x000000001ffe0b8c                LSIO_MU3_INT_IRQHandler
                0x000000001ffe0b8c                SCU_SYS_COUNT_INT1_IRQHandler
                0x000000001ffe0b8c                CONNECTIVITY_ENET0_TIMER_INT_DriverIRQHandler
                0x000000001ffe0b8c                Reserved186_IRQHandler
                0x000000001ffe0b8c                LSIO_GPT4_INT_IRQHandler
                0x000000001ffe0b8c                SCU_INT_OUT1_IRQHandler
                0x000000001ffe0b8c                DISPLAY0_INT_OUT5_IRQHandler
                0x000000001ffe0b8c                VPU_VPU_INT_2_IRQHandler
                0x000000001ffe0b8c                Reserved169_IRQHandler
                0x000000001ffe0b8c                SCU_INT_OUT0_IRQHandler
                0x000000001ffe0b8c                LSIO_MU9_INT_B_IRQHandler
                0x000000001ffe0b8c                LSIO_MU6_INT_A_IRQHandler
                0x000000001ffe0b8c                Reserved385_IRQHandler
                0x000000001ffe0b8c                Reserved601_IRQHandler
                0x000000001ffe0b8c                Reserved575_IRQHandler
                0x000000001ffe0b8c                Reserved106_IRQHandler
                0x000000001ffe0b8c                Reserved312_IRQHandler
                0x000000001ffe0b8c                Reserved313_IRQHandler
                0x000000001ffe0b8c                Reserved592_IRQHandler
                0x000000001ffe0b8c                ADMA_ADC0_MOD_INT_DriverIRQHandler
                0x000000001ffe0b8c                ADMA_SPI1_MOD_INT_DriverIRQHandler
                0x000000001ffe0b8c                LSIO_MU12_INT_B_IRQHandler
                0x000000001ffe0b8c                Reserved577_IRQHandler
                0x000000001ffe0b8c                LSIO_PWM0_INT_IRQHandler
                0x000000001ffe0b8c                SCU_INT_OUT5_IRQHandler
                0x000000001ffe0b8c                Reserved412_IRQHandler
                0x000000001ffe0b8c                M4_INTMUX_SOURCE_LPI2C_DriverIRQHandler
                0x000000001ffe0b8c                ADMA_SAI1_INT_DriverIRQHandler
                0x000000001ffe0b8c                Reserved175_IRQHandler
                0x000000001ffe0b8c                Reserved170_IRQHandler
                0x000000001ffe0b8c                Reserved292_IRQHandler
                0x000000001ffe0b8c                CONNECTIVITY_ENET1_FRAME0_EVENT_INT_DriverIRQHandler
                0x000000001ffe0b8c                Reserved28_IRQHandler
                0x000000001ffe0b8c                Reserved544_IRQHandler
                0x000000001ffe0b8c                Reserved80_IRQHandler
                0x000000001ffe0b8c                LSIO_GPIO_INT6_IRQHandler
                0x000000001ffe0b8c                LSIO_GPT1_INT_IRQHandler
                0x000000001ffe0b8c                Reserved353_IRQHandler
                0x000000001ffe0b8c                M4_LPI2C_DriverIRQHandler
                0x000000001ffe0b8c                Reserved543_IRQHandler
                0x000000001ffe0b8c                CONNECTIVITY_DMA_INT_DriverIRQHandler
                0x000000001ffe0b8c                Reserved124_IRQHandler
                0x000000001ffe0b8c                Reserved44_IRQHandler
                0x000000001ffe0b8c                Reserved63_IRQHandler
                0x000000001ffe0b8c                ADMA_FLEXCAN0_MOD_INT_DriverIRQHandler
                0x000000001ffe0b8c                HSIO_PCIEB_SMLH_REQ_RST_IRQHandler
                0x000000001ffe0b8c                Reserved507_IRQHandler
                0x000000001ffe0b8c                Reserved247_IRQHandler
                0x000000001ffe0b8c                Reserved40_IRQHandler
                0x000000001ffe0b8c                LSIO_GPIO_INT0_IRQHandler
                0x000000001ffe0b8c                ADMA_SAI0_MOD_INT_DriverIRQHandler
                0x000000001ffe0b8c                IRQSTEER_0_DriverIRQHandler
                0x000000001ffe0b8c                Reserved329_IRQHandler
                0x000000001ffe0b8c                Reserved351_IRQHandler
                0x000000001ffe0b8c                CONNECTIVITY_MLB_INT_IRQHandler
                0x000000001ffe0b8c                SECURITY_CAAM_INT3_IRQHandler
                0x000000001ffe0b8c                Reserved350_IRQHandler
                0x000000001ffe0b8c                SECURITY_CAAM_INT1_IRQHandler
                0x000000001ffe0b8c                M4_INT_OUT0_IRQHandler
                0x000000001ffe0b8c                IRQSTEER_6_DriverIRQHandler
                0x000000001ffe0b8c                Reserved56_IRQHandler
                0x000000001ffe0b8c                Reserved465_IRQHandler
                0x000000001ffe0b8c                DISPLAY0_INT_OUT0_IRQHandler
                0x000000001ffe0b8c                BusFault_Handler
                0x000000001ffe0b8c                Reserved87_IRQHandler
                0x000000001ffe0b8c                Reserved93_IRQHandler
                0x000000001ffe0b8c                DISPLAY0_RESERVED_IRQHandler
                0x000000001ffe0b8c                Reserved395_IRQHandler
                0x000000001ffe0b8c                CONNECTIVITY_ND_FLASH_BCH_INT_IRQHandler
                0x000000001ffe0b8c                MIPI_DSI1_INT_OUT_DriverIRQHandler
                0x000000001ffe0b8c                Reserved388_IRQHandler
                0x000000001ffe0b8c                Reserved383_IRQHandler
                0x000000001ffe0b8c                Reserved433_IRQHandler
                0x000000001ffe0b8c                DRC_ECC_CORRECT_INT_IRQHandler
                0x000000001ffe0b8c                Reserved593_IRQHandler
                0x000000001ffe0b8c                Reserved457_IRQHandler
                0x000000001ffe0b8c                HSIO_PCIEB_CLK_REQ_INT_IRQHandler
                0x000000001ffe0b8c                Reserved589_IRQHandler
                0x000000001ffe0b8c                IMAGING_PDMA_STREAM1_INT_DriverIRQHandler
                0x000000001ffe0b8c                ADMA_GPT0_INT_DriverIRQHandler
                0x000000001ffe0b8c                ADMA_FTM0_INT_DriverIRQHandler
                0x000000001ffe0b8c                Reserved348_IRQHandler
                0x000000001ffe0b8c                ADMA_I2C0_MOD_INT_DriverIRQHandler
                0x000000001ffe0b8c                CONNECTIVITY_ENET1_FRAME2_INT_DriverIRQHandler
                0x000000001ffe0b8c                Reserved568_IRQHandler
                0x000000001ffe0b8c                Reserved328_IRQHandler
                0x000000001ffe0b8c                LSIO_GPIO_INT4_IRQHandler
                0x000000001ffe0b8c                LSIO_GPIO_INT2_IRQHandler
                0x000000001ffe0b8c                Reserved281_IRQHandler
                0x000000001ffe0b8c                LCD_PWM_INT_IRQHandler
                0x000000001ffe0b8c                LSIO_MU5_INT_B_IRQHandler
                0x000000001ffe0b8c                Reserved380_IRQHandler
                0x000000001ffe0b8c                Reserved349_IRQHandler
                0x000000001ffe0b8c                CONNECTIVITY_ENET1_TIMER_INT_DriverIRQHandler
                0x000000001ffe0b8c                SCU_INT_OUT2_IRQHandler
                0x000000001ffe0b8c                ADMA_SAI3_MOD_INT_DriverIRQHandler
                0x000000001ffe0b8c                ADMA_ESAI0_MOD_INT_DriverIRQHandler
                0x000000001ffe0b8c                Reserved584_IRQHandler
                0x000000001ffe0b8c                Reserved572_IRQHandler
                0x000000001ffe0b8c                Reserved466_IRQHandler
                0x000000001ffe0b8c                ADMA_SAI2_INT_DriverIRQHandler
                0x000000001ffe0b8c                Reserved602_IRQHandler
                0x000000001ffe0b8c                HSIO_PCIEB_INT_C_IRQHandler
                0x000000001ffe0b8c                Reserved576_IRQHandler
                0x000000001ffe0b8c                ADMA_FLEXCAN2_MOD_INT_DriverIRQHandler
                0x000000001ffe0b8c                Reserved113_IRQHandler
                0x000000001ffe0b8c                IMAGING_PDMA_STREAM7_INT_DriverIRQHandler
                0x000000001ffe0b8c                Reserved67_IRQHandler
                0x000000001ffe0b90                NMI_Handler
                0x000000001ffe0b94                HardFault_Handler
                0x000000001ffe0ba4                M4_LPUART_IRQHandler
                0x000000001ffe0ba8                M4_LPI2C_IRQHandler
                0x000000001ffe0bac                IRQSTEER_0_IRQHandler
                0x000000001ffe0bb0                IRQSTEER_1_IRQHandler
                0x000000001ffe0bb4                IRQSTEER_2_IRQHandler
                0x000000001ffe0bb8                IRQSTEER_3_IRQHandler
                0x000000001ffe0bbc                IRQSTEER_4_IRQHandler
                0x000000001ffe0bc0                IRQSTEER_5_IRQHandler
                0x000000001ffe0bc4                IRQSTEER_6_IRQHandler
                0x000000001ffe0bc8                IRQSTEER_7_IRQHandler
                0x000000001ffe0bcc                MIPI_DSI0_INT_OUT_IRQHandler
                0x000000001ffe0bd0                MIPI_DSI1_INT_OUT_IRQHandler
                0x000000001ffe0bd4                ADMA_EDMA2_INT_IRQHandler
                0x000000001ffe0bd8                ADMA_EDMA2_ERR_INT_IRQHandler
                0x000000001ffe0bdc                ADMA_EDMA3_INT_IRQHandler
                0x000000001ffe0be0                ADMA_EDMA3_ERR_INT_IRQHandler
                0x000000001ffe0be4                LSIO_OCTASPI0_INT_IRQHandler
                0x000000001ffe0be8                LSIO_OCTASPI1_INT_IRQHandler
                0x000000001ffe0bec                HSIO_PCIEB_DMA_INT_IRQHandler
                0x000000001ffe0bf0                ADMA_SPI0_INT_IRQHandler
                0x000000001ffe0bf4                ADMA_SPI1_INT_IRQHandler
                0x000000001ffe0bf8                ADMA_SPI2_INT_IRQHandler
                0x000000001ffe0bfc                ADMA_SPI3_INT_IRQHandler
                0x000000001ffe0c00                ADMA_I2C0_INT_IRQHandler
                0x000000001ffe0c04                ADMA_I2C1_INT_IRQHandler
                0x000000001ffe0c08                ADMA_I2C2_INT_IRQHandler
                0x000000001ffe0c0c                ADMA_I2C3_INT_IRQHandler
                0x000000001ffe0c10                ADMA_UART0_INT_IRQHandler
                0x000000001ffe0c14                ADMA_UART1_INT_IRQHandler
                0x000000001ffe0c18                ADMA_UART2_INT_IRQHandler
                0x000000001ffe0c1c                ADMA_UART3_INT_IRQHandler
                0x000000001ffe0c20                CONNECTIVITY_USDHC0_INT_IRQHandler
                0x000000001ffe0c24                CONNECTIVITY_USDHC1_INT_IRQHandler
                0x000000001ffe0c28                CONNECTIVITY_USDHC2_INT_IRQHandler
                0x000000001ffe0c2c                ADMA_FLEXCAN0_INT_IRQHandler
                0x000000001ffe0c30                ADMA_FLEXCAN1_INT_IRQHandler
                0x000000001ffe0c34                ADMA_FLEXCAN2_INT_IRQHandler
                0x000000001ffe0c38                ADMA_FTM0_INT_IRQHandler
                0x000000001ffe0c3c                ADMA_FTM1_INT_IRQHandler
                0x000000001ffe0c40                ADMA_ADC0_INT_IRQHandler
                0x000000001ffe0c44                ADMA_EXTERNAL_DMA_INT_0_IRQHandler
                0x000000001ffe0c48                ADMA_EXTERNAL_DMA_INT_1_IRQHandler
                0x000000001ffe0c4c                ADMA_EXTERNAL_DMA_INT_2_IRQHandler
                0x000000001ffe0c50                ADMA_EXTERNAL_DMA_INT_3_IRQHandler
                0x000000001ffe0c54                ADMA_EXTERNAL_DMA_INT_4_IRQHandler
                0x000000001ffe0c58                ADMA_EXTERNAL_DMA_INT_5_IRQHandler
                0x000000001ffe0c5c                CONNECTIVITY_ENET0_FRAME1_INT_IRQHandler
                0x000000001ffe0c60                CONNECTIVITY_ENET0_FRAME2_INT_IRQHandler
                0x000000001ffe0c64                CONNECTIVITY_ENET0_FRAME0_EVENT_INT_IRQHandler
                0x000000001ffe0c68                CONNECTIVITY_ENET0_TIMER_INT_IRQHandler
                0x000000001ffe0c6c                CONNECTIVITY_ENET1_FRAME1_INT_IRQHandler
                0x000000001ffe0c70                CONNECTIVITY_ENET1_FRAME2_INT_IRQHandler
                0x000000001ffe0c74                CONNECTIVITY_ENET1_FRAME0_EVENT_INT_IRQHandler
                0x000000001ffe0c78                CONNECTIVITY_ENET1_TIMER_INT_IRQHandler
                0x000000001ffe0c7c                CONNECTIVITY_APBHDMA_IRQHandler
                0x000000001ffe0c80                CONNECTIVITY_DMA_INT_IRQHandler
                0x000000001ffe0c84                CONNECTIVITY_DMA_ERR_INT_IRQHandler
                0x000000001ffe0c88                IMAGING_PDMA_STREAM0_INT_IRQHandler
                0x000000001ffe0c8c                IMAGING_PDMA_STREAM1_INT_IRQHandler
                0x000000001ffe0c90                IMAGING_PDMA_STREAM2_INT_IRQHandler
                0x000000001ffe0c94                IMAGING_PDMA_STREAM3_INT_IRQHandler
                0x000000001ffe0c98                IMAGING_PDMA_STREAM4_INT_IRQHandler
                0x000000001ffe0c9c                IMAGING_PDMA_STREAM5_INT_IRQHandler
                0x000000001ffe0ca0                IMAGING_PDMA_STREAM6_INT_IRQHandler
                0x000000001ffe0ca4                IMAGING_PDMA_STREAM7_INT_IRQHandler
                0x000000001ffe0ca8                ADMA_SAI0_MOD_INT_IRQHandler
                0x000000001ffe0cac                ADMA_SAI0_DMA_INT_IRQHandler
                0x000000001ffe0cb0                ADMA_SAI1_MOD_INT_IRQHandler
                0x000000001ffe0cb4                ADMA_SAI1_DMA_INT_IRQHandler
                0x000000001ffe0cb8                ADMA_SAI2_MOD_INT_IRQHandler
                0x000000001ffe0cbc                ADMA_SAI2_DMA_INT_IRQHandler
                0x000000001ffe0cc0                ADMA_SAI3_MOD_INT_IRQHandler
                0x000000001ffe0cc4                ADMA_SAI3_DMA_INT_IRQHandler
                0x000000001ffe0cc8                ADMA_SAI4_MOD_INT_IRQHandler
                0x000000001ffe0ccc                ADMA_SAI4_DMA_INT_IRQHandler
                0x000000001ffe0cd0                ADMA_SAI5_MOD_INT_IRQHandler
                0x000000001ffe0cd4                ADMA_SAI5_DMA_INT_IRQHandler
                0x000000001ffe0cd8                ADMA_SPI0_MOD_INT_IRQHandler
                0x000000001ffe0cdc                ADMA_SPI1_MOD_INT_IRQHandler
                0x000000001ffe0ce0                ADMA_SPI2_MOD_INT_IRQHandler
                0x000000001ffe0ce4                ADMA_SPI3_MOD_INT_IRQHandler
                0x000000001ffe0ce8                ADMA_I2C0_MOD_INT_IRQHandler
                0x000000001ffe0cec                ADMA_I2C1_MOD_INT_IRQHandler
                0x000000001ffe0cf0                ADMA_I2C2_MOD_INT_IRQHandler
                0x000000001ffe0cf4                ADMA_I2C3_MOD_INT_IRQHandler
                0x000000001ffe0cf8                ADMA_UART0_MOD_INT_IRQHandler
                0x000000001ffe0cfc                ADMA_UART1_MOD_INT_IRQHandler
                0x000000001ffe0d00                ADMA_UART2_MOD_INT_IRQHandler
                0x000000001ffe0d04                ADMA_UART3_MOD_INT_IRQHandler
                0x000000001ffe0d08                ADMA_FLEXCAN0_MOD_INT_IRQHandler
                0x000000001ffe0d0c                ADMA_FLEXCAN1_MOD_INT_IRQHandler
                0x000000001ffe0d10                ADMA_FLEXCAN2_MOD_INT_IRQHandler
                0x000000001ffe0d14                ADMA_FTM0_MOD_INT_IRQHandler
                0x000000001ffe0d18                ADMA_FTM1_MOD_INT_IRQHandler
                0x000000001ffe0d1c                ADMA_ADC0_MOD_INT_IRQHandler
                0x000000001ffe0d20                ADMA_FLEXCAN0_DMA_INT_IRQHandler
                0x000000001ffe0d24                ADMA_FLEXCAN1_DMA_INT_IRQHandler
                0x000000001ffe0d28                ADMA_FLEXCAN2_DMA_INT_IRQHandler
                0x000000001ffe0d2c                ADMA_FTM0_DMA_INT_IRQHandler
                0x000000001ffe0d30                ADMA_FTM1_DMA_INT_IRQHandler
                0x000000001ffe0d34                ADMA_ADC0_DMA_INT_IRQHandler
                0x000000001ffe0d38                ADMA_EDMA0_INT_IRQHandler
                0x000000001ffe0d3c                ADMA_EDMA0_ERR_INT_IRQHandler
                0x000000001ffe0d40                ADMA_EDMA1_INT_IRQHandler
                0x000000001ffe0d44                ADMA_EDMA1_ERR_INT_IRQHandler
                0x000000001ffe0d48                ADMA_ASRC0_INT1_IRQHandler
                0x000000001ffe0d4c                ADMA_ASRC0_INT2_IRQHandler
                0x000000001ffe0d50                ADMA_DMA0_CH0_INT_IRQHandler
                0x000000001ffe0d54                ADMA_DMA0_CH1_INT_IRQHandler
                0x000000001ffe0d58                ADMA_DMA0_CH2_INT_IRQHandler
                0x000000001ffe0d5c                ADMA_DMA0_CH3_INT_IRQHandler
                0x000000001ffe0d60                ADMA_DMA0_CH4_INT_IRQHandler
                0x000000001ffe0d64                ADMA_DMA0_CH5_INT_IRQHandler
                0x000000001ffe0d68                ADMA_ASRC1_INT1_IRQHandler
                0x000000001ffe0d6c                ADMA_ASRC1_INT2_IRQHandler
                0x000000001ffe0d70                ADMA_DMA1_CH0_INT_IRQHandler
                0x000000001ffe0d74                ADMA_DMA1_CH1_INT_IRQHandler
                0x000000001ffe0d78                ADMA_DMA1_CH2_INT_IRQHandler
                0x000000001ffe0d7c                ADMA_DMA1_CH3_INT_IRQHandler
                0x000000001ffe0d80                ADMA_DMA1_CH4_INT_IRQHandler
                0x000000001ffe0d84                ADMA_DMA1_CH5_INT_IRQHandler
                0x000000001ffe0d88                ADMA_ESAI0_INT_IRQHandler
                0x000000001ffe0d8c                ADMA_GPT0_INT_IRQHandler
                0x000000001ffe0d90                ADMA_GPT1_INT_IRQHandler
                0x000000001ffe0d94                ADMA_GPT2_INT_IRQHandler
                0x000000001ffe0d98                ADMA_GPT3_INT_IRQHandler
                0x000000001ffe0d9c                ADMA_GPT4_INT_IRQHandler
                0x000000001ffe0da0                ADMA_GPT5_INT_IRQHandler
                0x000000001ffe0da4                ADMA_SAI0_INT_IRQHandler
                0x000000001ffe0da8                ADMA_SAI1_INT_IRQHandler
                0x000000001ffe0dac                ADMA_SAI2_INT_IRQHandler
                0x000000001ffe0db0                ADMA_SAI3_INT_IRQHandler
                0x000000001ffe0db4                ADMA_SAI4_INT_IRQHandler
                0x000000001ffe0db8                ADMA_SAI5_INT_IRQHandler
                0x000000001ffe0dbc                ADMA_SPDIF0_RX_INT_IRQHandler
                0x000000001ffe0dc0                ADMA_SPDIF0_TX_INT_IRQHandler
                0x000000001ffe0dc4                ADMA_ESAI0_MOD_INT_IRQHandler
                0x000000001ffe0dc8                ADMA_ESAI0_DMA_INT_IRQHandler
                0x000000001ffe0dcc                ADMA_SPI0_DMA_RX_INT_IRQHandler
                0x000000001ffe0dd0                ADMA_SPI0_DMA_TX_INT_IRQHandler
                0x000000001ffe0dd4                ADMA_SPI1_DMA_RX_INT_IRQHandler
                0x000000001ffe0dd8                ADMA_SPI1_DMA_TX_INT_IRQHandler
                0x000000001ffe0ddc                ADMA_SPI2_DMA_RX_INT_IRQHandler
                0x000000001ffe0de0                ADMA_SPI2_DMA_TX_INT_IRQHandler
                0x000000001ffe0de4                ADMA_SPI3_DMA_RX_INT_IRQHandler
                0x000000001ffe0de8                ADMA_SPI3_DMA_TX_INT_IRQHandler
                0x000000001ffe0dec                ADMA_I2C0_DMA_RX_INT_IRQHandler
                0x000000001ffe0df0                ADMA_I2C0_DMA_TX_INT_IRQHandler
                0x000000001ffe0df4                ADMA_I2C1_DMA_RX_INT_IRQHandler
                0x000000001ffe0df8                ADMA_I2C1_DMA_TX_INT_IRQHandler
                0x000000001ffe0dfc                ADMA_I2C2_DMA_RX_INT_IRQHandler
                0x000000001ffe0e00                ADMA_I2C2_DMA_TX_INT_IRQHandler
                0x000000001ffe0e04                ADMA_I2C3_DMA_RX_INT_IRQHandler
                0x000000001ffe0e08                ADMA_I2C3_DMA_TX_INT_IRQHandler
                0x000000001ffe0e0c                ADMA_UART0_DMA_RX_INT_IRQHandler
                0x000000001ffe0e10                ADMA_UART0_DMA_TX_INT_IRQHandler
                0x000000001ffe0e14                ADMA_UART1_DMA_RX_INT_IRQHandler
                0x000000001ffe0e18                ADMA_UART1_DMA_TX_INT_IRQHandler
                0x000000001ffe0e1c                ADMA_UART2_DMA_RX_INT_IRQHandler
                0x000000001ffe0e20                ADMA_UART2_DMA_TX_INT_IRQHandler
                0x000000001ffe0e24                ADMA_UART3_DMA_RX_INT_IRQHandler
                0x000000001ffe0e28                ADMA_UART3_DMA_TX_INT_IRQHandler
                0x000000001ffe0e2c                ADMA_SPDIF0_RX_MOD_INT_IRQHandler
                0x000000001ffe0e30                ADMA_SPDIF0_RX_DMA_INT_IRQHandler
                0x000000001ffe0e34                ADMA_SPDIF0_TX_MOD_INT_IRQHandler
                0x000000001ffe0e38                ADMA_SPDIF0_TX_DMA_INT_IRQHandler
                0x000000001ffe0e3c                M4_INTMUX_SOURCE_TPM_IRQHandler
                0x000000001ffe0e40                M4_INTMUX_SOURCE_LPIT_IRQHandler
                0x000000001ffe0e44                M4_INTMUX_SOURCE_LPUART_IRQHandler
                0x000000001ffe0e48                M4_INTMUX_SOURCE_LPI2C_IRQHandler
                0x000000001ffe0e4c                M4_INTMUX_SOURCE_MU0_A3_IRQHandler
                0x000000001ffe0e50                M4_INTMUX_SOURCE_MU0_A2_IRQHandler
                0x000000001ffe0e54                M4_INTMUX_SOURCE_MU0_A1_IRQHandler
                0x000000001ffe0e58                M4_INTMUX_SOURCE_MU0_A0_IRQHandler
 .text          0x000000001ffe1030       0x10 /home/ben/Toradex/LinuxDevelop/FreeRTOS/Colibri-iMX8X/gcc-arm-none-eabi-9-2020-q2-update/bin/../lib/gcc/arm-none-eabi/9.3.1/../../../../arm-none-eabi/lib/thumb/v7e-m+fp/hard/libc_nano.a(lib_a-strlen.o)
                0x000000001ffe1030                strlen
 .text          0x000000001ffe1040       0x30 /home/ben/Toradex/LinuxDevelop/FreeRTOS/Colibri-iMX8X/gcc-arm-none-eabi-9-2020-q2-update/bin/../lib/gcc/arm-none-eabi/9.3.1/thumb/v7e-m+fp/hard/libgcc.a(_aeabi_uldivmod.o)
                0x000000001ffe1040                __aeabi_uldivmod
 .text          0x000000001ffe1070      0x2c4 /home/ben/Toradex/LinuxDevelop/FreeRTOS/Colibri-iMX8X/gcc-arm-none-eabi-9-2020-q2-update/bin/../lib/gcc/arm-none-eabi/9.3.1/thumb/v7e-m+fp/hard/libgcc.a(_udivmoddi4.o)
                0x000000001ffe1070                __udivmoddi4
 .text          0x000000001ffe1334        0x4 /home/ben/Toradex/LinuxDevelop/FreeRTOS/Colibri-iMX8X/gcc-arm-none-eabi-9-2020-q2-update/bin/../lib/gcc/arm-none-eabi/9.3.1/thumb/v7e-m+fp/hard/libgcc.a(_dvmd_tls.o)
                0x000000001ffe1334                __aeabi_ldiv0
                0x000000001ffe1334                __aeabi_idiv0
 *(.text*)
 .text.spi_task
                0x000000001ffe1338       0x7c CMakeFiles/freertos_hello.elf.dir/home/ben/Toradex/LinuxDevelop/FreeRTOS/Colibri-iMX8X/SDK_2_9_0_MEK-MIMX8QX/boards/mekmimx8qx/rtos_examples/freertos_lpspi/freertos_hello.c.obj
 .text.startup.main
                0x000000001ffe13b4       0x8c CMakeFiles/freertos_hello.elf.dir/home/ben/Toradex/LinuxDevelop/FreeRTOS/Colibri-iMX8X/SDK_2_9_0_MEK-MIMX8QX/boards/mekmimx8qx/rtos_examples/freertos_lpspi/freertos_hello.c.obj
                0x000000001ffe13b4                main
 .text.BOARD_InitPins
                0x000000001ffe1440       0x9a CMakeFiles/freertos_hello.elf.dir/home/ben/Toradex/LinuxDevelop/FreeRTOS/Colibri-iMX8X/SDK_2_9_0_MEK-MIMX8QX/boards/mekmimx8qx/rtos_examples/freertos_lpspi/pin_mux.c.obj
                0x000000001ffe1440                BOARD_InitPins
 *fill*         0x000000001ffe14da        0x2 
 .text.BOARD_InitRpc
                0x000000001ffe14dc       0x28 CMakeFiles/freertos_hello.elf.dir/home/ben/Toradex/LinuxDevelop/FreeRTOS/Colibri-iMX8X/SDK_2_9_0_MEK-MIMX8QX/boards/mekmimx8qx/rtos_examples/freertos_lpspi/board.c.obj
                0x000000001ffe14dc                BOARD_InitRpc
 .text.BOARD_InitDebugConsole
                0x000000001ffe1504       0x40 CMakeFiles/freertos_hello.elf.dir/home/ben/Toradex/LinuxDevelop/FreeRTOS/Colibri-iMX8X/SDK_2_9_0_MEK-MIMX8QX/boards/mekmimx8qx/rtos_examples/freertos_lpspi/board.c.obj
                0x000000001ffe1504                BOARD_InitDebugConsole
 .text.BOARD_InitMemory
                0x000000001ffe1544       0x70 CMakeFiles/freertos_hello.elf.dir/home/ben/Toradex/LinuxDevelop/FreeRTOS/Colibri-iMX8X/SDK_2_9_0_MEK-MIMX8QX/boards/mekmimx8qx/rtos_examples/freertos_lpspi/board.c.obj
                0x000000001ffe1544                BOARD_InitMemory
 .text.BOARD_BootClockRUN
                0x000000001ffe15b4        0x4 CMakeFiles/freertos_hello.elf.dir/home/ben/Toradex/LinuxDevelop/FreeRTOS/Colibri-iMX8X/SDK_2_9_0_MEK-MIMX8QX/boards/mekmimx8qx/rtos_examples/freertos_lpspi/clock_config.c.obj
                0x000000001ffe15b4                BOARD_BootClockRUN
 .text.CLOCK_Init
                0x000000001ffe15b8        0xc CMakeFiles/freertos_hello.elf.dir/home/ben/Toradex/LinuxDevelop/FreeRTOS/Colibri-iMX8X/SDK_2_9_0_MEK-MIMX8QX/devices/MIMX8QX6/drivers/fsl_clock.c.obj
                0x000000001ffe15b8                CLOCK_Init
 .text.CLOCK_SetIpFreq
                0x000000001ffe15c4       0x28 CMakeFiles/freertos_hello.elf.dir/home/ben/Toradex/LinuxDevelop/FreeRTOS/Colibri-iMX8X/SDK_2_9_0_MEK-MIMX8QX/devices/MIMX8QX6/drivers/fsl_clock.c.obj
                0x000000001ffe15c4                CLOCK_SetIpFreq
 .text.CLOCK_GetIpFreq
                0x000000001ffe15ec       0x24 CMakeFiles/freertos_hello.elf.dir/home/ben/Toradex/LinuxDevelop/FreeRTOS/Colibri-iMX8X/SDK_2_9_0_MEK-MIMX8QX/devices/MIMX8QX6/drivers/fsl_clock.c.obj
                0x000000001ffe15ec                CLOCK_GetIpFreq
 .text.CLOCK_SetLpcgGate
                0x000000001ffe1610       0x2e CMakeFiles/freertos_hello.elf.dir/home/ben/Toradex/LinuxDevelop/FreeRTOS/Colibri-iMX8X/SDK_2_9_0_MEK-MIMX8QX/devices/MIMX8QX6/drivers/fsl_clock.c.obj
                0x000000001ffe1610                CLOCK_SetLpcgGate
 *fill*         0x000000001ffe163e        0x2 
 .text.CLOCK_ConfigLPCG
                0x000000001ffe1640      0x37c CMakeFiles/freertos_hello.elf.dir/home/ben/Toradex/LinuxDevelop/FreeRTOS/Colibri-iMX8X/SDK_2_9_0_MEK-MIMX8QX/devices/MIMX8QX6/drivers/fsl_clock.c.obj
                0x000000001ffe1640                CLOCK_ConfigLPCG
 .text.CLOCK_EnableClockExt
                0x000000001ffe19bc       0x38 CMakeFiles/freertos_hello.elf.dir/home/ben/Toradex/LinuxDevelop/FreeRTOS/Colibri-iMX8X/SDK_2_9_0_MEK-MIMX8QX/devices/MIMX8QX6/drivers/fsl_clock.c.obj
                0x000000001ffe19bc                CLOCK_EnableClockExt
 .text.sc_ipc_open
                0x000000001ffe19f4       0x1a CMakeFiles/freertos_hello.elf.dir/home/ben/Toradex/LinuxDevelop/FreeRTOS/Colibri-iMX8X/SDK_2_9_0_MEK-MIMX8QX/devices/MIMX8QX6/scfw_api/main/ipc_imx8qx.c.obj
                0x000000001ffe19f4                sc_ipc_open
 .text.sc_ipc_read
                0x000000001ffe1a0e       0x48 CMakeFiles/freertos_hello.elf.dir/home/ben/Toradex/LinuxDevelop/FreeRTOS/Colibri-iMX8X/SDK_2_9_0_MEK-MIMX8QX/devices/MIMX8QX6/scfw_api/main/ipc_imx8qx.c.obj
                0x000000001ffe1a0e                sc_ipc_read
 .text.sc_ipc_write
                0x000000001ffe1a56       0x42 CMakeFiles/freertos_hello.elf.dir/home/ben/Toradex/LinuxDevelop/FreeRTOS/Colibri-iMX8X/SDK_2_9_0_MEK-MIMX8QX/devices/MIMX8QX6/scfw_api/main/ipc_imx8qx.c.obj
                0x000000001ffe1a56                sc_ipc_write
 .text.sc_call_rpc
                0x000000001ffe1a98       0x34 CMakeFiles/freertos_hello.elf.dir/home/ben/Toradex/LinuxDevelop/FreeRTOS/Colibri-iMX8X/SDK_2_9_0_MEK-MIMX8QX/devices/MIMX8QX6/scfw_api/main/ipc_imx8qx.c.obj
                0x000000001ffe1a98                sc_call_rpc
 .text.sc_misc_boot_done
                0x000000001ffe1acc       0x24 CMakeFiles/freertos_hello.elf.dir/home/ben/Toradex/LinuxDevelop/FreeRTOS/Colibri-iMX8X/SDK_2_9_0_MEK-MIMX8QX/devices/MIMX8QX6/scfw_api/svc/misc/misc_rpc_clnt.c.obj
                0x000000001ffe1acc                sc_misc_boot_done
 .text.sc_pad_set_all
                0x000000001ffe1af0       0x3c CMakeFiles/freertos_hello.elf.dir/home/ben/Toradex/LinuxDevelop/FreeRTOS/Colibri-iMX8X/SDK_2_9_0_MEK-MIMX8QX/devices/MIMX8QX6/scfw_api/svc/pad/pad_rpc_clnt.c.obj
                0x000000001ffe1af0                sc_pad_set_all
 .text.sc_pm_set_resource_power_mode
                0x000000001ffe1b2c       0x28 CMakeFiles/freertos_hello.elf.dir/home/ben/Toradex/LinuxDevelop/FreeRTOS/Colibri-iMX8X/SDK_2_9_0_MEK-MIMX8QX/devices/MIMX8QX6/scfw_api/svc/pm/pm_rpc_clnt.c.obj
                0x000000001ffe1b2c                sc_pm_set_resource_power_mode
 .text.sc_pm_set_clock_rate
                0x000000001ffe1b54       0x30 CMakeFiles/freertos_hello.elf.dir/home/ben/Toradex/LinuxDevelop/FreeRTOS/Colibri-iMX8X/SDK_2_9_0_MEK-MIMX8QX/devices/MIMX8QX6/scfw_api/svc/pm/pm_rpc_clnt.c.obj
                0x000000001ffe1b54                sc_pm_set_clock_rate
 .text.sc_pm_get_clock_rate
                0x000000001ffe1b84       0x2c CMakeFiles/freertos_hello.elf.dir/home/ben/Toradex/LinuxDevelop/FreeRTOS/Colibri-iMX8X/SDK_2_9_0_MEK-MIMX8QX/devices/MIMX8QX6/scfw_api/svc/pm/pm_rpc_clnt.c.obj
                0x000000001ffe1b84                sc_pm_get_clock_rate
 .text.sc_pm_clock_enable
                0x000000001ffe1bb0       0x3c CMakeFiles/freertos_hello.elf.dir/home/ben/Toradex/LinuxDevelop/FreeRTOS/Colibri-iMX8X/SDK_2_9_0_MEK-MIMX8QX/devices/MIMX8QX6/scfw_api/svc/pm/pm_rpc_clnt.c.obj
                0x000000001ffe1bb0                sc_pm_clock_enable
 .text.LPSPI_MasterTransferComplete
                0x000000001ffe1bec       0x28 CMakeFiles/freertos_hello.elf.dir/home/ben/Toradex/LinuxDevelop/FreeRTOS/Colibri-iMX8X/SDK_2_9_0_MEK-MIMX8QX/devices/MIMX8QX6/drivers/fsl_lpspi.c.obj
 .text.LPSPI_CombineWriteData
                0x000000001ffe1c14       0x48 CMakeFiles/freertos_hello.elf.dir/home/ben/Toradex/LinuxDevelop/FreeRTOS/Colibri-iMX8X/SDK_2_9_0_MEK-MIMX8QX/devices/MIMX8QX6/drivers/fsl_lpspi.c.obj
 .text.LPSPI_MasterTransferFillUpTxFifo
                0x000000001ffe1c5c       0x92 CMakeFiles/freertos_hello.elf.dir/home/ben/Toradex/LinuxDevelop/FreeRTOS/Colibri-iMX8X/SDK_2_9_0_MEK-MIMX8QX/devices/MIMX8QX6/drivers/fsl_lpspi.c.obj
 *fill*         0x000000001ffe1cee        0x2 
 .text.LPSPI_CommonIRQHandler
                0x000000001ffe1cf0       0x20 CMakeFiles/freertos_hello.elf.dir/home/ben/Toradex/LinuxDevelop/FreeRTOS/Colibri-iMX8X/SDK_2_9_0_MEK-MIMX8QX/devices/MIMX8QX6/drivers/fsl_lpspi.c.obj
 .text.LPSPI_SeparateReadData
                0x000000001ffe1d10       0x66 CMakeFiles/freertos_hello.elf.dir/home/ben/Toradex/LinuxDevelop/FreeRTOS/Colibri-iMX8X/SDK_2_9_0_MEK-MIMX8QX/devices/MIMX8QX6/drivers/fsl_lpspi.c.obj
 .text.LPSPI_MasterTransferHandleIRQ
                0x000000001ffe1d76       0xfe CMakeFiles/freertos_hello.elf.dir/home/ben/Toradex/LinuxDevelop/FreeRTOS/Colibri-iMX8X/SDK_2_9_0_MEK-MIMX8QX/devices/MIMX8QX6/drivers/fsl_lpspi.c.obj
                0x000000001ffe1d76                LPSPI_MasterTransferHandleIRQ
 .text.LPSPI_GetInstance
                0x000000001ffe1e74       0x34 CMakeFiles/freertos_hello.elf.dir/home/ben/Toradex/LinuxDevelop/FreeRTOS/Colibri-iMX8X/SDK_2_9_0_MEK-MIMX8QX/devices/MIMX8QX6/drivers/fsl_lpspi.c.obj
                0x000000001ffe1e74                LPSPI_GetInstance
 .text.LPSPI_SetDummyData
                0x000000001ffe1ea8       0x10 CMakeFiles/freertos_hello.elf.dir/home/ben/Toradex/LinuxDevelop/FreeRTOS/Colibri-iMX8X/SDK_2_9_0_MEK-MIMX8QX/devices/MIMX8QX6/drivers/fsl_lpspi.c.obj
                0x000000001ffe1ea8                LPSPI_SetDummyData
 .text.LPSPI_MasterSetBaudRate
                0x000000001ffe1eb8       0x88 CMakeFiles/freertos_hello.elf.dir/home/ben/Toradex/LinuxDevelop/FreeRTOS/Colibri-iMX8X/SDK_2_9_0_MEK-MIMX8QX/devices/MIMX8QX6/drivers/fsl_lpspi.c.obj
                0x000000001ffe1eb8                LPSPI_MasterSetBaudRate
 .text.LPSPI_MasterSetDelayScaler
                0x000000001ffe1f40       0x36 CMakeFiles/freertos_hello.elf.dir/home/ben/Toradex/LinuxDevelop/FreeRTOS/Colibri-iMX8X/SDK_2_9_0_MEK-MIMX8QX/devices/MIMX8QX6/drivers/fsl_lpspi.c.obj
                0x000000001ffe1f40                LPSPI_MasterSetDelayScaler
 *fill*         0x000000001ffe1f76        0x2 
 .text.LPSPI_MasterSetDelayTimes
                0x000000001ffe1f78      0x10c CMakeFiles/freertos_hello.elf.dir/home/ben/Toradex/LinuxDevelop/FreeRTOS/Colibri-iMX8X/SDK_2_9_0_MEK-MIMX8QX/devices/MIMX8QX6/drivers/fsl_lpspi.c.obj
                0x000000001ffe1f78                LPSPI_MasterSetDelayTimes
 .text.LPSPI_MasterInit
                0x000000001ffe2084       0xe8 CMakeFiles/freertos_hello.elf.dir/home/ben/Toradex/LinuxDevelop/FreeRTOS/Colibri-iMX8X/SDK_2_9_0_MEK-MIMX8QX/devices/MIMX8QX6/drivers/fsl_lpspi.c.obj
                0x000000001ffe2084                LPSPI_MasterInit
 .text.LPSPI_MasterTransferCreateHandle
                0x000000001ffe216c       0x38 CMakeFiles/freertos_hello.elf.dir/home/ben/Toradex/LinuxDevelop/FreeRTOS/Colibri-iMX8X/SDK_2_9_0_MEK-MIMX8QX/devices/MIMX8QX6/drivers/fsl_lpspi.c.obj
                0x000000001ffe216c                LPSPI_MasterTransferCreateHandle
 .text.LPSPI_CheckTransferArgument
                0x000000001ffe21a4       0x40 CMakeFiles/freertos_hello.elf.dir/home/ben/Toradex/LinuxDevelop/FreeRTOS/Colibri-iMX8X/SDK_2_9_0_MEK-MIMX8QX/devices/MIMX8QX6/drivers/fsl_lpspi.c.obj
                0x000000001ffe21a4                LPSPI_CheckTransferArgument
 .text.LPSPI_MasterTransferBlocking
                0x000000001ffe21e4      0x1d0 CMakeFiles/freertos_hello.elf.dir/home/ben/Toradex/LinuxDevelop/FreeRTOS/Colibri-iMX8X/SDK_2_9_0_MEK-MIMX8QX/devices/MIMX8QX6/drivers/fsl_lpspi.c.obj
                0x000000001ffe21e4                LPSPI_MasterTransferBlocking
 .text.ADMA_SPI0_INT_DriverIRQHandler
                0x000000001ffe23b4       0x20 CMakeFiles/freertos_hello.elf.dir/home/ben/Toradex/LinuxDevelop/FreeRTOS/Colibri-iMX8X/SDK_2_9_0_MEK-MIMX8QX/devices/MIMX8QX6/drivers/fsl_lpspi.c.obj
                0x000000001ffe23b4                ADMA_SPI0_INT_DriverIRQHandler
 .text.ADMA_SPI1_INT_DriverIRQHandler
                0x000000001ffe23d4       0x24 CMakeFiles/freertos_hello.elf.dir/home/ben/Toradex/LinuxDevelop/FreeRTOS/Colibri-iMX8X/SDK_2_9_0_MEK-MIMX8QX/devices/MIMX8QX6/drivers/fsl_lpspi.c.obj
                0x000000001ffe23d4                ADMA_SPI1_INT_DriverIRQHandler
 .text.ADMA_SPI2_INT_DriverIRQHandler
                0x000000001ffe23f8       0x24 CMakeFiles/freertos_hello.elf.dir/home/ben/Toradex/LinuxDevelop/FreeRTOS/Colibri-iMX8X/SDK_2_9_0_MEK-MIMX8QX/devices/MIMX8QX6/drivers/fsl_lpspi.c.obj
                0x000000001ffe23f8                ADMA_SPI2_INT_DriverIRQHandler
 .text.ADMA_SPI3_INT_DriverIRQHandler
                0x000000001ffe241c       0x24 CMakeFiles/freertos_hello.elf.dir/home/ben/Toradex/LinuxDevelop/FreeRTOS/Colibri-iMX8X/SDK_2_9_0_MEK-MIMX8QX/devices/MIMX8QX6/drivers/fsl_lpspi.c.obj
                0x000000001ffe241c                ADMA_SPI3_INT_DriverIRQHandler
 .text.LPSPI_RTOS_Callback
                0x000000001ffe2440       0x2c CMakeFiles/freertos_hello.elf.dir/home/ben/Toradex/LinuxDevelop/FreeRTOS/Colibri-iMX8X/SDK_2_9_0_MEK-MIMX8QX/devices/MIMX8QX6/drivers/fsl_lpspi_freertos.c.obj
 .text.LPSPI_RTOS_Init
                0x000000001ffe246c       0x64 CMakeFiles/freertos_hello.elf.dir/home/ben/Toradex/LinuxDevelop/FreeRTOS/Colibri-iMX8X/SDK_2_9_0_MEK-MIMX8QX/devices/MIMX8QX6/drivers/fsl_lpspi_freertos.c.obj
                0x000000001ffe246c                LPSPI_RTOS_Init
 .text.LPSPI_RTOS_TransferBlocking
                0x000000001ffe24d0        0x6 CMakeFiles/freertos_hello.elf.dir/home/ben/Toradex/LinuxDevelop/FreeRTOS/Colibri-iMX8X/SDK_2_9_0_MEK-MIMX8QX/devices/MIMX8QX6/drivers/fsl_lpspi_freertos.c.obj
                0x000000001ffe24d0                LPSPI_RTOS_TransferBlocking
 .text.vListInitialise
                0x000000001ffe24d6       0x16 CMakeFiles/freertos_hello.elf.dir/home/ben/Toradex/LinuxDevelop/FreeRTOS/Colibri-iMX8X/SDK_2_9_0_MEK-MIMX8QX/rtos/freertos/freertos_kernel/list.c.obj
                0x000000001ffe24d6                vListInitialise
 .text.vListInitialiseItem
                0x000000001ffe24ec        0x6 CMakeFiles/freertos_hello.elf.dir/home/ben/Toradex/LinuxDevelop/FreeRTOS/Colibri-iMX8X/SDK_2_9_0_MEK-MIMX8QX/rtos/freertos/freertos_kernel/list.c.obj
                0x000000001ffe24ec                vListInitialiseItem
 .text.vListInsertEnd
                0x000000001ffe24f2       0x16 CMakeFiles/freertos_hello.elf.dir/home/ben/Toradex/LinuxDevelop/FreeRTOS/Colibri-iMX8X/SDK_2_9_0_MEK-MIMX8QX/rtos/freertos/freertos_kernel/list.c.obj
                0x000000001ffe24f2                vListInsertEnd
 .text.vListInsert
                0x000000001ffe2508       0x2e CMakeFiles/freertos_hello.elf.dir/home/ben/Toradex/LinuxDevelop/FreeRTOS/Colibri-iMX8X/SDK_2_9_0_MEK-MIMX8QX/rtos/freertos/freertos_kernel/list.c.obj
                0x000000001ffe2508                vListInsert
 .text.uxListRemove
                0x000000001ffe2536       0x24 CMakeFiles/freertos_hello.elf.dir/home/ben/Toradex/LinuxDevelop/FreeRTOS/Colibri-iMX8X/SDK_2_9_0_MEK-MIMX8QX/rtos/freertos/freertos_kernel/list.c.obj
                0x000000001ffe2536                uxListRemove
 *fill*         0x000000001ffe255a        0x2 
 .text.prvPortStartFirstTask
                0x000000001ffe255c       0x28 CMakeFiles/freertos_hello.elf.dir/home/ben/Toradex/LinuxDevelop/FreeRTOS/Colibri-iMX8X/SDK_2_9_0_MEK-MIMX8QX/rtos/freertos/freertos_kernel/portable/GCC/ARM_CM4F/port.c.obj
 .text.vPortEnableVFP
                0x000000001ffe2584       0x14 CMakeFiles/freertos_hello.elf.dir/home/ben/Toradex/LinuxDevelop/FreeRTOS/Colibri-iMX8X/SDK_2_9_0_MEK-MIMX8QX/rtos/freertos/freertos_kernel/portable/GCC/ARM_CM4F/port.c.obj
 .text.prvTaskExitError
                0x000000001ffe2598       0x40 CMakeFiles/freertos_hello.elf.dir/home/ben/Toradex/LinuxDevelop/FreeRTOS/Colibri-iMX8X/SDK_2_9_0_MEK-MIMX8QX/rtos/freertos/freertos_kernel/portable/GCC/ARM_CM4F/port.c.obj
 .text.pxPortInitialiseStack
                0x000000001ffe25d8       0x2c CMakeFiles/freertos_hello.elf.dir/home/ben/Toradex/LinuxDevelop/FreeRTOS/Colibri-iMX8X/SDK_2_9_0_MEK-MIMX8QX/rtos/freertos/freertos_kernel/portable/GCC/ARM_CM4F/port.c.obj
                0x000000001ffe25d8                pxPortInitialiseStack
 *fill*         0x000000001ffe2604        0xc 
 .text.SVC_Handler
                0x000000001ffe2610       0x24 CMakeFiles/freertos_hello.elf.dir/home/ben/Toradex/LinuxDevelop/FreeRTOS/Colibri-iMX8X/SDK_2_9_0_MEK-MIMX8QX/rtos/freertos/freertos_kernel/portable/GCC/ARM_CM4F/port.c.obj
                0x000000001ffe2610                SVC_Handler
 .text.vPortEnterCritical
                0x000000001ffe2634       0x44 CMakeFiles/freertos_hello.elf.dir/home/ben/Toradex/LinuxDevelop/FreeRTOS/Colibri-iMX8X/SDK_2_9_0_MEK-MIMX8QX/rtos/freertos/freertos_kernel/portable/GCC/ARM_CM4F/port.c.obj
                0x000000001ffe2634                vPortEnterCritical
 .text.vPortExitCritical
                0x000000001ffe2678       0x28 CMakeFiles/freertos_hello.elf.dir/home/ben/Toradex/LinuxDevelop/FreeRTOS/Colibri-iMX8X/SDK_2_9_0_MEK-MIMX8QX/rtos/freertos/freertos_kernel/portable/GCC/ARM_CM4F/port.c.obj
                0x000000001ffe2678                vPortExitCritical
 .text.PendSV_Handler
                0x000000001ffe26a0       0x64 CMakeFiles/freertos_hello.elf.dir/home/ben/Toradex/LinuxDevelop/FreeRTOS/Colibri-iMX8X/SDK_2_9_0_MEK-MIMX8QX/rtos/freertos/freertos_kernel/portable/GCC/ARM_CM4F/port.c.obj
                0x000000001ffe26a0                PendSV_Handler
 .text.SysTick_Handler
                0x000000001ffe2704       0x2c CMakeFiles/freertos_hello.elf.dir/home/ben/Toradex/LinuxDevelop/FreeRTOS/Colibri-iMX8X/SDK_2_9_0_MEK-MIMX8QX/rtos/freertos/freertos_kernel/portable/GCC/ARM_CM4F/port.c.obj
                0x000000001ffe2704                SysTick_Handler
 .text.vPortSetupTimerInterrupt
                0x000000001ffe2730       0x30 CMakeFiles/freertos_hello.elf.dir/home/ben/Toradex/LinuxDevelop/FreeRTOS/Colibri-iMX8X/SDK_2_9_0_MEK-MIMX8QX/rtos/freertos/freertos_kernel/portable/GCC/ARM_CM4F/port.c.obj
                0x000000001ffe2730                vPortSetupTimerInterrupt
 .text.xPortStartScheduler
                0x000000001ffe2760      0x108 CMakeFiles/freertos_hello.elf.dir/home/ben/Toradex/LinuxDevelop/FreeRTOS/Colibri-iMX8X/SDK_2_9_0_MEK-MIMX8QX/rtos/freertos/freertos_kernel/portable/GCC/ARM_CM4F/port.c.obj
                0x000000001ffe2760                xPortStartScheduler
 .text.vPortValidateInterruptPriority
                0x000000001ffe2868       0x5c CMakeFiles/freertos_hello.elf.dir/home/ben/Toradex/LinuxDevelop/FreeRTOS/Colibri-iMX8X/SDK_2_9_0_MEK-MIMX8QX/rtos/freertos/freertos_kernel/portable/GCC/ARM_CM4F/port.c.obj
                0x000000001ffe2868                vPortValidateInterruptPriority
 .text.prvIsQueueEmpty
                0x000000001ffe28c4       0x16 CMakeFiles/freertos_hello.elf.dir/home/ben/Toradex/LinuxDevelop/FreeRTOS/Colibri-iMX8X/SDK_2_9_0_MEK-MIMX8QX/rtos/freertos/freertos_kernel/queue.c.obj
 .text.prvCopyDataToQueue
                0x000000001ffe28da       0x6a CMakeFiles/freertos_hello.elf.dir/home/ben/Toradex/LinuxDevelop/FreeRTOS/Colibri-iMX8X/SDK_2_9_0_MEK-MIMX8QX/rtos/freertos/freertos_kernel/queue.c.obj
 .text.prvCopyDataFromQueue
                0x000000001ffe2944       0x2c CMakeFiles/freertos_hello.elf.dir/home/ben/Toradex/LinuxDevelop/FreeRTOS/Colibri-iMX8X/SDK_2_9_0_MEK-MIMX8QX/rtos/freertos/freertos_kernel/queue.c.obj
 .text.prvUnlockQueue
                0x000000001ffe2970       0x70 CMakeFiles/freertos_hello.elf.dir/home/ben/Toradex/LinuxDevelop/FreeRTOS/Colibri-iMX8X/SDK_2_9_0_MEK-MIMX8QX/rtos/freertos/freertos_kernel/queue.c.obj
 .text.xQueueGenericReset
                0x000000001ffe29e0       0x80 CMakeFiles/freertos_hello.elf.dir/home/ben/Toradex/LinuxDevelop/FreeRTOS/Colibri-iMX8X/SDK_2_9_0_MEK-MIMX8QX/rtos/freertos/freertos_kernel/queue.c.obj
                0x000000001ffe29e0                xQueueGenericReset
 .text.xQueueGenericCreate
                0x000000001ffe2a60       0x48 CMakeFiles/freertos_hello.elf.dir/home/ben/Toradex/LinuxDevelop/FreeRTOS/Colibri-iMX8X/SDK_2_9_0_MEK-MIMX8QX/rtos/freertos/freertos_kernel/queue.c.obj
                0x000000001ffe2a60                xQueueGenericCreate
 .text.xQueueGenericSend
                0x000000001ffe2aa8      0x164 CMakeFiles/freertos_hello.elf.dir/home/ben/Toradex/LinuxDevelop/FreeRTOS/Colibri-iMX8X/SDK_2_9_0_MEK-MIMX8QX/rtos/freertos/freertos_kernel/queue.c.obj
                0x000000001ffe2aa8                xQueueGenericSend
 .text.xQueueCreateMutex
                0x000000001ffe2c0c       0x36 CMakeFiles/freertos_hello.elf.dir/home/ben/Toradex/LinuxDevelop/FreeRTOS/Colibri-iMX8X/SDK_2_9_0_MEK-MIMX8QX/rtos/freertos/freertos_kernel/queue.c.obj
                0x000000001ffe2c0c                xQueueCreateMutex
 .text.xQueueGenericSendFromISR
                0x000000001ffe2c42       0xc4 CMakeFiles/freertos_hello.elf.dir/home/ben/Toradex/LinuxDevelop/FreeRTOS/Colibri-iMX8X/SDK_2_9_0_MEK-MIMX8QX/rtos/freertos/freertos_kernel/queue.c.obj
                0x000000001ffe2c42                xQueueGenericSendFromISR
 .text.xQueueGiveFromISR
                0x000000001ffe2d06       0xa8 CMakeFiles/freertos_hello.elf.dir/home/ben/Toradex/LinuxDevelop/FreeRTOS/Colibri-iMX8X/SDK_2_9_0_MEK-MIMX8QX/rtos/freertos/freertos_kernel/queue.c.obj
                0x000000001ffe2d06                xQueueGiveFromISR
 *fill*         0x000000001ffe2dae        0x2 
 .text.xQueueReceive
                0x000000001ffe2db0      0x140 CMakeFiles/freertos_hello.elf.dir/home/ben/Toradex/LinuxDevelop/FreeRTOS/Colibri-iMX8X/SDK_2_9_0_MEK-MIMX8QX/rtos/freertos/freertos_kernel/queue.c.obj
                0x000000001ffe2db0                xQueueReceive
 .text.vQueueAddToRegistry
                0x000000001ffe2ef0       0x24 CMakeFiles/freertos_hello.elf.dir/home/ben/Toradex/LinuxDevelop/FreeRTOS/Colibri-iMX8X/SDK_2_9_0_MEK-MIMX8QX/rtos/freertos/freertos_kernel/queue.c.obj
                0x000000001ffe2ef0                vQueueAddToRegistry
 .text.vQueueUnregisterQueue
                0x000000001ffe2f14       0x28 CMakeFiles/freertos_hello.elf.dir/home/ben/Toradex/LinuxDevelop/FreeRTOS/Colibri-iMX8X/SDK_2_9_0_MEK-MIMX8QX/rtos/freertos/freertos_kernel/queue.c.obj
                0x000000001ffe2f14                vQueueUnregisterQueue
 .text.vQueueDelete
                0x000000001ffe2f3c       0x26 CMakeFiles/freertos_hello.elf.dir/home/ben/Toradex/LinuxDevelop/FreeRTOS/Colibri-iMX8X/SDK_2_9_0_MEK-MIMX8QX/rtos/freertos/freertos_kernel/queue.c.obj
                0x000000001ffe2f3c                vQueueDelete
 .text.vQueueWaitForMessageRestricted
                0x000000001ffe2f62       0x46 CMakeFiles/freertos_hello.elf.dir/home/ben/Toradex/LinuxDevelop/FreeRTOS/Colibri-iMX8X/SDK_2_9_0_MEK-MIMX8QX/rtos/freertos/freertos_kernel/queue.c.obj
                0x000000001ffe2f62                vQueueWaitForMessageRestricted
 .text.prvResetNextTaskUnblockTime
                0x000000001ffe2fa8       0x24 CMakeFiles/freertos_hello.elf.dir/home/ben/Toradex/LinuxDevelop/FreeRTOS/Colibri-iMX8X/SDK_2_9_0_MEK-MIMX8QX/rtos/freertos/freertos_kernel/tasks.c.obj
 .text.prvAddCurrentTaskToDelayedList
                0x000000001ffe2fcc       0x8c CMakeFiles/freertos_hello.elf.dir/home/ben/Toradex/LinuxDevelop/FreeRTOS/Colibri-iMX8X/SDK_2_9_0_MEK-MIMX8QX/rtos/freertos/freertos_kernel/tasks.c.obj
 .text.prvIdleTask
                0x000000001ffe3058       0x6c CMakeFiles/freertos_hello.elf.dir/home/ben/Toradex/LinuxDevelop/FreeRTOS/Colibri-iMX8X/SDK_2_9_0_MEK-MIMX8QX/rtos/freertos/freertos_kernel/tasks.c.obj
 .text.xTaskCreate
                0x000000001ffe30c4      0x1dc CMakeFiles/freertos_hello.elf.dir/home/ben/Toradex/LinuxDevelop/FreeRTOS/Colibri-iMX8X/SDK_2_9_0_MEK-MIMX8QX/rtos/freertos/freertos_kernel/tasks.c.obj
                0x000000001ffe30c4                xTaskCreate
 .text.vTaskStartScheduler
                0x000000001ffe32a0       0x80 CMakeFiles/freertos_hello.elf.dir/home/ben/Toradex/LinuxDevelop/FreeRTOS/Colibri-iMX8X/SDK_2_9_0_MEK-MIMX8QX/rtos/freertos/freertos_kernel/tasks.c.obj
                0x000000001ffe32a0                vTaskStartScheduler
 .text.vTaskSuspendAll
                0x000000001ffe3320       0x10 CMakeFiles/freertos_hello.elf.dir/home/ben/Toradex/LinuxDevelop/FreeRTOS/Colibri-iMX8X/SDK_2_9_0_MEK-MIMX8QX/rtos/freertos/freertos_kernel/tasks.c.obj
                0x000000001ffe3320                vTaskSuspendAll
 .text.xTaskGetTickCount
                0x000000001ffe3330        0xc CMakeFiles/freertos_hello.elf.dir/home/ben/Toradex/LinuxDevelop/FreeRTOS/Colibri-iMX8X/SDK_2_9_0_MEK-MIMX8QX/rtos/freertos/freertos_kernel/tasks.c.obj
                0x000000001ffe3330                xTaskGetTickCount
 .text.xTaskIncrementTick
                0x000000001ffe333c      0x108 CMakeFiles/freertos_hello.elf.dir/home/ben/Toradex/LinuxDevelop/FreeRTOS/Colibri-iMX8X/SDK_2_9_0_MEK-MIMX8QX/rtos/freertos/freertos_kernel/tasks.c.obj
                0x000000001ffe333c                xTaskIncrementTick
 .text.xTaskResumeAll
                0x000000001ffe3444       0xf0 CMakeFiles/freertos_hello.elf.dir/home/ben/Toradex/LinuxDevelop/FreeRTOS/Colibri-iMX8X/SDK_2_9_0_MEK-MIMX8QX/rtos/freertos/freertos_kernel/tasks.c.obj
                0x000000001ffe3444                xTaskResumeAll
 .text.vTaskSwitchContext
                0x000000001ffe3534       0x74 CMakeFiles/freertos_hello.elf.dir/home/ben/Toradex/LinuxDevelop/FreeRTOS/Colibri-iMX8X/SDK_2_9_0_MEK-MIMX8QX/rtos/freertos/freertos_kernel/tasks.c.obj
                0x000000001ffe3534                vTaskSwitchContext
 .text.vTaskSuspend
                0x000000001ffe35a8       0xd8 CMakeFiles/freertos_hello.elf.dir/home/ben/Toradex/LinuxDevelop/FreeRTOS/Colibri-iMX8X/SDK_2_9_0_MEK-MIMX8QX/rtos/freertos/freertos_kernel/tasks.c.obj
                0x000000001ffe35a8                vTaskSuspend
 .text.vTaskPlaceOnEventList
                0x000000001ffe3680       0x34 CMakeFiles/freertos_hello.elf.dir/home/ben/Toradex/LinuxDevelop/FreeRTOS/Colibri-iMX8X/SDK_2_9_0_MEK-MIMX8QX/rtos/freertos/freertos_kernel/tasks.c.obj
                0x000000001ffe3680                vTaskPlaceOnEventList
 .text.vTaskPlaceOnEventListRestricted
                0x000000001ffe36b4       0x3c CMakeFiles/freertos_hello.elf.dir/home/ben/Toradex/LinuxDevelop/FreeRTOS/Colibri-iMX8X/SDK_2_9_0_MEK-MIMX8QX/rtos/freertos/freertos_kernel/tasks.c.obj
                0x000000001ffe36b4                vTaskPlaceOnEventListRestricted
 .text.xTaskRemoveFromEventList
                0x000000001ffe36f0       0x88 CMakeFiles/freertos_hello.elf.dir/home/ben/Toradex/LinuxDevelop/FreeRTOS/Colibri-iMX8X/SDK_2_9_0_MEK-MIMX8QX/rtos/freertos/freertos_kernel/tasks.c.obj
                0x000000001ffe36f0                xTaskRemoveFromEventList
 .text.vTaskInternalSetTimeOutState
                0x000000001ffe3778       0x18 CMakeFiles/freertos_hello.elf.dir/home/ben/Toradex/LinuxDevelop/FreeRTOS/Colibri-iMX8X/SDK_2_9_0_MEK-MIMX8QX/rtos/freertos/freertos_kernel/tasks.c.obj
                0x000000001ffe3778                vTaskInternalSetTimeOutState
 .text.xTaskCheckForTimeOut
                0x000000001ffe3790       0x78 CMakeFiles/freertos_hello.elf.dir/home/ben/Toradex/LinuxDevelop/FreeRTOS/Colibri-iMX8X/SDK_2_9_0_MEK-MIMX8QX/rtos/freertos/freertos_kernel/tasks.c.obj
                0x000000001ffe3790                xTaskCheckForTimeOut
 .text.vTaskMissedYield
                0x000000001ffe3808        0xc CMakeFiles/freertos_hello.elf.dir/home/ben/Toradex/LinuxDevelop/FreeRTOS/Colibri-iMX8X/SDK_2_9_0_MEK-MIMX8QX/rtos/freertos/freertos_kernel/tasks.c.obj
                0x000000001ffe3808                vTaskMissedYield
 .text.xTaskGetSchedulerState
                0x000000001ffe3814       0x20 CMakeFiles/freertos_hello.elf.dir/home/ben/Toradex/LinuxDevelop/FreeRTOS/Colibri-iMX8X/SDK_2_9_0_MEK-MIMX8QX/rtos/freertos/freertos_kernel/tasks.c.obj
                0x000000001ffe3814                xTaskGetSchedulerState
 .text.xTaskPriorityDisinherit
                0x000000001ffe3834       0xa4 CMakeFiles/freertos_hello.elf.dir/home/ben/Toradex/LinuxDevelop/FreeRTOS/Colibri-iMX8X/SDK_2_9_0_MEK-MIMX8QX/rtos/freertos/freertos_kernel/tasks.c.obj
                0x000000001ffe3834                xTaskPriorityDisinherit
 .text.prvCheckForValidListAndQueue
                0x000000001ffe38d8       0x58 CMakeFiles/freertos_hello.elf.dir/home/ben/Toradex/LinuxDevelop/FreeRTOS/Colibri-iMX8X/SDK_2_9_0_MEK-MIMX8QX/rtos/freertos/freertos_kernel/timers.c.obj
 .text.prvInsertTimerInActiveList
                0x000000001ffe3930       0x3c CMakeFiles/freertos_hello.elf.dir/home/ben/Toradex/LinuxDevelop/FreeRTOS/Colibri-iMX8X/SDK_2_9_0_MEK-MIMX8QX/rtos/freertos/freertos_kernel/timers.c.obj
 .text.xTimerCreateTimerTask
                0x000000001ffe396c       0x4c CMakeFiles/freertos_hello.elf.dir/home/ben/Toradex/LinuxDevelop/FreeRTOS/Colibri-iMX8X/SDK_2_9_0_MEK-MIMX8QX/rtos/freertos/freertos_kernel/timers.c.obj
                0x000000001ffe396c                xTimerCreateTimerTask
 .text.xTimerGenericCommand
                0x000000001ffe39b8       0x58 CMakeFiles/freertos_hello.elf.dir/home/ben/Toradex/LinuxDevelop/FreeRTOS/Colibri-iMX8X/SDK_2_9_0_MEK-MIMX8QX/rtos/freertos/freertos_kernel/timers.c.obj
                0x000000001ffe39b8                xTimerGenericCommand
 .text.prvSwitchTimerLists
                0x000000001ffe3a10       0x7c CMakeFiles/freertos_hello.elf.dir/home/ben/Toradex/LinuxDevelop/FreeRTOS/Colibri-iMX8X/SDK_2_9_0_MEK-MIMX8QX/rtos/freertos/freertos_kernel/timers.c.obj
 .text.prvTimerTask
                0x000000001ffe3a8c      0x1f8 CMakeFiles/freertos_hello.elf.dir/home/ben/Toradex/LinuxDevelop/FreeRTOS/Colibri-iMX8X/SDK_2_9_0_MEK-MIMX8QX/rtos/freertos/freertos_kernel/timers.c.obj
 .text.prvInsertBlockIntoFreeList
                0x000000001ffe3c84       0x48 CMakeFiles/freertos_hello.elf.dir/home/ben/Toradex/LinuxDevelop/FreeRTOS/Colibri-iMX8X/SDK_2_9_0_MEK-MIMX8QX/rtos/freertos/freertos_kernel/portable/MemMang/heap_4.c.obj
 .text.pvPortMalloc
                0x000000001ffe3ccc      0x120 CMakeFiles/freertos_hello.elf.dir/home/ben/Toradex/LinuxDevelop/FreeRTOS/Colibri-iMX8X/SDK_2_9_0_MEK-MIMX8QX/rtos/freertos/freertos_kernel/portable/MemMang/heap_4.c.obj
                0x000000001ffe3ccc                pvPortMalloc
 .text.vPortFree
                0x000000001ffe3dec       0x7c CMakeFiles/freertos_hello.elf.dir/home/ben/Toradex/LinuxDevelop/FreeRTOS/Colibri-iMX8X/SDK_2_9_0_MEK-MIMX8QX/rtos/freertos/freertos_kernel/portable/MemMang/heap_4.c.obj
                0x000000001ffe3dec                vPortFree
 .text.PrintOutputdifFobpu.isra.0
                0x000000001ffe3e68       0x28 CMakeFiles/freertos_hello.elf.dir/home/ben/Toradex/LinuxDevelop/FreeRTOS/Colibri-iMX8X/SDK_2_9_0_MEK-MIMX8QX/devices/MIMX8QX6/utilities/str/fsl_str.c.obj
 .text.StrFormatPrintf
                0x000000001ffe3e90      0x1e8 CMakeFiles/freertos_hello.elf.dir/home/ben/Toradex/LinuxDevelop/FreeRTOS/Colibri-iMX8X/SDK_2_9_0_MEK-MIMX8QX/devices/MIMX8QX6/utilities/str/fsl_str.c.obj
                0x000000001ffe3e90                StrFormatPrintf
 .text.DbgConsole_SendDataReliable
                0x000000001ffe4078       0x2c CMakeFiles/freertos_hello.elf.dir/home/ben/Toradex/LinuxDevelop/FreeRTOS/Colibri-iMX8X/SDK_2_9_0_MEK-MIMX8QX/devices/MIMX8QX6/utilities/debug_console/fsl_debug_console.c.obj
                0x000000001ffe4078                DbgConsole_SendDataReliable
 .text.DbgConsole_PrintCallback
                0x000000001ffe40a4       0x3a CMakeFiles/freertos_hello.elf.dir/home/ben/Toradex/LinuxDevelop/FreeRTOS/Colibri-iMX8X/SDK_2_9_0_MEK-MIMX8QX/devices/MIMX8QX6/utilities/debug_console/fsl_debug_console.c.obj
 *fill*         0x000000001ffe40de        0x2 
 .text.DbgConsole_Init
                0x000000001ffe40e0       0x78 CMakeFiles/freertos_hello.elf.dir/home/ben/Toradex/LinuxDevelop/FreeRTOS/Colibri-iMX8X/SDK_2_9_0_MEK-MIMX8QX/devices/MIMX8QX6/utilities/debug_console/fsl_debug_console.c.obj
                0x000000001ffe40e0                DbgConsole_Init
 .text.DbgConsole_Printf
                0x000000001ffe4158       0x40 CMakeFiles/freertos_hello.elf.dir/home/ben/Toradex/LinuxDevelop/FreeRTOS/Colibri-iMX8X/SDK_2_9_0_MEK-MIMX8QX/devices/MIMX8QX6/utilities/debug_console/fsl_debug_console.c.obj
                0x000000001ffe4158                DbgConsole_Printf
 .text.SerialManager_Init
                0x000000001ffe4198       0x2a CMakeFiles/freertos_hello.elf.dir/home/ben/Toradex/LinuxDevelop/FreeRTOS/Colibri-iMX8X/SDK_2_9_0_MEK-MIMX8QX/components/serial_manager/fsl_component_serial_manager.c.obj
                0x000000001ffe4198                SerialManager_Init
 .text.SerialManager_OpenWriteHandle
                0x000000001ffe41c2       0x26 CMakeFiles/freertos_hello.elf.dir/home/ben/Toradex/LinuxDevelop/FreeRTOS/Colibri-iMX8X/SDK_2_9_0_MEK-MIMX8QX/components/serial_manager/fsl_component_serial_manager.c.obj
                0x000000001ffe41c2                SerialManager_OpenWriteHandle
 .text.SerialManager_OpenReadHandle
                0x000000001ffe41e8       0x2c CMakeFiles/freertos_hello.elf.dir/home/ben/Toradex/LinuxDevelop/FreeRTOS/Colibri-iMX8X/SDK_2_9_0_MEK-MIMX8QX/components/serial_manager/fsl_component_serial_manager.c.obj
                0x000000001ffe41e8                SerialManager_OpenReadHandle
 .text.SerialManager_WriteBlocking
                0x000000001ffe4214       0x14 CMakeFiles/freertos_hello.elf.dir/home/ben/Toradex/LinuxDevelop/FreeRTOS/Colibri-iMX8X/SDK_2_9_0_MEK-MIMX8QX/components/serial_manager/fsl_component_serial_manager.c.obj
                0x000000001ffe4214                SerialManager_WriteBlocking
 .text.Serial_UartInit
                0x000000001ffe4228        0x4 CMakeFiles/freertos_hello.elf.dir/home/ben/Toradex/LinuxDevelop/FreeRTOS/Colibri-iMX8X/SDK_2_9_0_MEK-MIMX8QX/components/serial_manager/fsl_component_serial_port_uart.c.obj
                0x000000001ffe4228                Serial_UartInit
 .text.Serial_UartWrite
                0x000000001ffe422c        0x4 CMakeFiles/freertos_hello.elf.dir/home/ben/Toradex/LinuxDevelop/FreeRTOS/Colibri-iMX8X/SDK_2_9_0_MEK-MIMX8QX/components/serial_manager/fsl_component_serial_port_uart.c.obj
                0x000000001ffe422c                Serial_UartWrite
 .text.LPUART_GetInstance
                0x000000001ffe4230       0x50 CMakeFiles/freertos_hello.elf.dir/home/ben/Toradex/LinuxDevelop/FreeRTOS/Colibri-iMX8X/SDK_2_9_0_MEK-MIMX8QX/devices/MIMX8QX6/drivers/fsl_lpuart.c.obj
                0x000000001ffe4230                LPUART_GetInstance
 .text.LPUART_Init
                0x000000001ffe4280      0x198 CMakeFiles/freertos_hello.elf.dir/home/ben/Toradex/LinuxDevelop/FreeRTOS/Colibri-iMX8X/SDK_2_9_0_MEK-MIMX8QX/devices/MIMX8QX6/drivers/fsl_lpuart.c.obj
                0x000000001ffe4280                LPUART_Init
 .text.LPUART_GetDefaultConfig
                0x000000001ffe4418       0x1e CMakeFiles/freertos_hello.elf.dir/home/ben/Toradex/LinuxDevelop/FreeRTOS/Colibri-iMX8X/SDK_2_9_0_MEK-MIMX8QX/devices/MIMX8QX6/drivers/fsl_lpuart.c.obj
                0x000000001ffe4418                LPUART_GetDefaultConfig
 .text.LPUART_WriteBlocking
                0x000000001ffe4436       0x1e CMakeFiles/freertos_hello.elf.dir/home/ben/Toradex/LinuxDevelop/FreeRTOS/Colibri-iMX8X/SDK_2_9_0_MEK-MIMX8QX/devices/MIMX8QX6/drivers/fsl_lpuart.c.obj
                0x000000001ffe4436                LPUART_WriteBlocking
 .text.M4_LPUART_DriverIRQHandler
                0x000000001ffe4454       0x2c CMakeFiles/freertos_hello.elf.dir/home/ben/Toradex/LinuxDevelop/FreeRTOS/Colibri-iMX8X/SDK_2_9_0_MEK-MIMX8QX/devices/MIMX8QX6/drivers/fsl_lpuart.c.obj
                0x000000001ffe4454                M4_LPUART_DriverIRQHandler
 .text.ADMA_UART0_INT_DriverIRQHandler
                0x000000001ffe4480       0x2c CMakeFiles/freertos_hello.elf.dir/home/ben/Toradex/LinuxDevelop/FreeRTOS/Colibri-iMX8X/SDK_2_9_0_MEK-MIMX8QX/devices/MIMX8QX6/drivers/fsl_lpuart.c.obj
                0x000000001ffe4480                ADMA_UART0_INT_DriverIRQHandler
 .text.ADMA_UART1_INT_DriverIRQHandler
                0x000000001ffe44ac       0x2c CMakeFiles/freertos_hello.elf.dir/home/ben/Toradex/LinuxDevelop/FreeRTOS/Colibri-iMX8X/SDK_2_9_0_MEK-MIMX8QX/devices/MIMX8QX6/drivers/fsl_lpuart.c.obj
                0x000000001ffe44ac                ADMA_UART1_INT_DriverIRQHandler
 .text.ADMA_UART2_INT_DriverIRQHandler
                0x000000001ffe44d8       0x2c CMakeFiles/freertos_hello.elf.dir/home/ben/Toradex/LinuxDevelop/FreeRTOS/Colibri-iMX8X/SDK_2_9_0_MEK-MIMX8QX/devices/MIMX8QX6/drivers/fsl_lpuart.c.obj
                0x000000001ffe44d8                ADMA_UART2_INT_DriverIRQHandler
 .text.ADMA_UART3_INT_DriverIRQHandler
                0x000000001ffe4504       0x2c CMakeFiles/freertos_hello.elf.dir/home/ben/Toradex/LinuxDevelop/FreeRTOS/Colibri-iMX8X/SDK_2_9_0_MEK-MIMX8QX/devices/MIMX8QX6/drivers/fsl_lpuart.c.obj
                0x000000001ffe4504                ADMA_UART3_INT_DriverIRQHandler
 .text.HAL_UartInit
                0x000000001ffe4530       0x74 CMakeFiles/freertos_hello.elf.dir/home/ben/Toradex/LinuxDevelop/FreeRTOS/Colibri-iMX8X/SDK_2_9_0_MEK-MIMX8QX/components/uart/fsl_adapter_lpuart.c.obj
                0x000000001ffe4530                HAL_UartInit
 .text.HAL_UartSendBlocking
                0x000000001ffe45a4       0x18 CMakeFiles/freertos_hello.elf.dir/home/ben/Toradex/LinuxDevelop/FreeRTOS/Colibri-iMX8X/SDK_2_9_0_MEK-MIMX8QX/components/uart/fsl_adapter_lpuart.c.obj
                0x000000001ffe45a4                HAL_UartSendBlocking
 .text.SystemInit
                0x000000001ffe45bc       0x88 CMakeFiles/freertos_hello.elf.dir/home/ben/Toradex/LinuxDevelop/FreeRTOS/Colibri-iMX8X/SDK_2_9_0_MEK-MIMX8QX/devices/MIMX8QX6/system_MIMX8QX6_cm4.c.obj
                0x000000001ffe45bc                SystemInit
 .text.SystemCoreClockUpdate
                0x000000001ffe4644       0x2c CMakeFiles/freertos_hello.elf.dir/home/ben/Toradex/LinuxDevelop/FreeRTOS/Colibri-iMX8X/SDK_2_9_0_MEK-MIMX8QX/devices/MIMX8QX6/system_MIMX8QX6_cm4.c.obj
                0x000000001ffe4644                SystemCoreClockUpdate
 .text.SystemInitScfwIpc
                0x000000001ffe4670       0x24 CMakeFiles/freertos_hello.elf.dir/home/ben/Toradex/LinuxDevelop/FreeRTOS/Colibri-iMX8X/SDK_2_9_0_MEK-MIMX8QX/devices/MIMX8QX6/system_MIMX8QX6_cm4.c.obj
                0x000000001ffe4670                SystemInitScfwIpc
 .text.SystemGetScfwIpcHandle
                0x000000001ffe4694        0xc CMakeFiles/freertos_hello.elf.dir/home/ben/Toradex/LinuxDevelop/FreeRTOS/Colibri-iMX8X/SDK_2_9_0_MEK-MIMX8QX/devices/MIMX8QX6/system_MIMX8QX6_cm4.c.obj
                0x000000001ffe4694                SystemGetScfwIpcHandle
 .text.exit     0x000000001ffe46a0       0x28 /home/ben/Toradex/LinuxDevelop/FreeRTOS/Colibri-iMX8X/gcc-arm-none-eabi-9-2020-q2-update/bin/../lib/gcc/arm-none-eabi/9.3.1/../../../../arm-none-eabi/lib/thumb/v7e-m+fp/hard/libc_nano.a(lib_a-exit.o)
                0x000000001ffe46a0                exit
 .text.__libc_init_array
                0x000000001ffe46c8       0x48 /home/ben/Toradex/LinuxDevelop/FreeRTOS/Colibri-iMX8X/gcc-arm-none-eabi-9-2020-q2-update/bin/../lib/gcc/arm-none-eabi/9.3.1/../../../../arm-none-eabi/lib/thumb/v7e-m+fp/hard/libc_nano.a(lib_a-init.o)
                0x000000001ffe46c8                __libc_init_array
 .text.memcpy   0x000000001ffe4710       0x1c /home/ben/Toradex/LinuxDevelop/FreeRTOS/Colibri-iMX8X/gcc-arm-none-eabi-9-2020-q2-update/bin/../lib/gcc/arm-none-eabi/9.3.1/../../../../arm-none-eabi/lib/thumb/v7e-m+fp/hard/libc_nano.a(lib_a-memcpy-stub.o)
                0x000000001ffe4710                memcpy
 .text.memset   0x000000001ffe472c       0x10 /home/ben/Toradex/LinuxDevelop/FreeRTOS/Colibri-iMX8X/gcc-arm-none-eabi-9-2020-q2-update/bin/../lib/gcc/arm-none-eabi/9.3.1/../../../../arm-none-eabi/lib/thumb/v7e-m+fp/hard/libc_nano.a(lib_a-memset.o)
                0x000000001ffe472c                memset
 .text._exit    0x000000001ffe473c        0x4 /home/ben/Toradex/LinuxDevelop/FreeRTOS/Colibri-iMX8X/gcc-arm-none-eabi-9-2020-q2-update/bin/../lib/gcc/arm-none-eabi/9.3.1/../../../../arm-none-eabi/lib/thumb/v7e-m+fp/hard/libnosys.a(_exit.o)
                0x000000001ffe473c                _exit
 *(.rodata)
 *(.rodata*)
 .rodata.spi_task.str1.1
                0x000000001ffe4740       0x7b CMakeFiles/freertos_hello.elf.dir/home/ben/Toradex/LinuxDevelop/FreeRTOS/Colibri-iMX8X/SDK_2_9_0_MEK-MIMX8QX/boards/mekmimx8qx/rtos_examples/freertos_lpspi/freertos_hello.c.obj
 .rodata.main.str1.1
                0x000000001ffe47bb       0x69 CMakeFiles/freertos_hello.elf.dir/home/ben/Toradex/LinuxDevelop/FreeRTOS/Colibri-iMX8X/SDK_2_9_0_MEK-MIMX8QX/boards/mekmimx8qx/rtos_examples/freertos_lpspi/freertos_hello.c.obj
 .rodata.s_baudratePrescaler
                0x000000001ffe4824        0x8 CMakeFiles/freertos_hello.elf.dir/home/ben/Toradex/LinuxDevelop/FreeRTOS/Colibri-iMX8X/SDK_2_9_0_MEK-MIMX8QX/devices/MIMX8QX6/drivers/fsl_lpspi.c.obj
 .rodata.s_lpspiClocks
                0x000000001ffe482c       0x10 CMakeFiles/freertos_hello.elf.dir/home/ben/Toradex/LinuxDevelop/FreeRTOS/Colibri-iMX8X/SDK_2_9_0_MEK-MIMX8QX/devices/MIMX8QX6/drivers/fsl_lpspi.c.obj
 .rodata.vTaskStartScheduler.str1.1
                0x000000001ffe483c        0x5 CMakeFiles/freertos_hello.elf.dir/home/ben/Toradex/LinuxDevelop/FreeRTOS/Colibri-iMX8X/SDK_2_9_0_MEK-MIMX8QX/rtos/freertos/freertos_kernel/tasks.c.obj
 .rodata.prvCheckForValidListAndQueue.str1.1
                0x000000001ffe4841        0x5 CMakeFiles/freertos_hello.elf.dir/home/ben/Toradex/LinuxDevelop/FreeRTOS/Colibri-iMX8X/SDK_2_9_0_MEK-MIMX8QX/rtos/freertos/freertos_kernel/timers.c.obj
 .rodata.xTimerCreateTimerTask.str1.1
                0x000000001ffe4846        0x8 CMakeFiles/freertos_hello.elf.dir/home/ben/Toradex/LinuxDevelop/FreeRTOS/Colibri-iMX8X/SDK_2_9_0_MEK-MIMX8QX/rtos/freertos/freertos_kernel/timers.c.obj
 *fill*         0x000000001ffe484e        0x2 
 .rodata.s_lpuartClock
                0x000000001ffe4850       0x18 CMakeFiles/freertos_hello.elf.dir/home/ben/Toradex/LinuxDevelop/FreeRTOS/Colibri-iMX8X/SDK_2_9_0_MEK-MIMX8QX/devices/MIMX8QX6/drivers/fsl_lpuart.c.obj
 .rodata.s_LpuartAdapterBase
                0x000000001ffe4868       0x18 CMakeFiles/freertos_hello.elf.dir/home/ben/Toradex/LinuxDevelop/FreeRTOS/Colibri-iMX8X/SDK_2_9_0_MEK-MIMX8QX/components/uart/fsl_adapter_lpuart.c.obj
 .rodata._global_impure_ptr
                0x000000001ffe4880        0x4 /home/ben/Toradex/LinuxDevelop/FreeRTOS/Colibri-iMX8X/gcc-arm-none-eabi-9-2020-q2-update/bin/../lib/gcc/arm-none-eabi/9.3.1/../../../../arm-none-eabi/lib/thumb/v7e-m+fp/hard/libc_nano.a(lib_a-impure.o)
                0x000000001ffe4880                _global_impure_ptr
 *(.glue_7)
 .glue_7        0x000000001ffe4884        0x0 linker stubs
 *(.glue_7t)
 .glue_7t       0x000000001ffe4884        0x0 linker stubs
 *(.eh_frame)
 .eh_frame      0x000000001ffe4884        0x0 /home/ben/Toradex/LinuxDevelop/FreeRTOS/Colibri-iMX8X/gcc-arm-none-eabi-9-2020-q2-update/bin/../lib/gcc/arm-none-eabi/9.3.1/thumb/v7e-m+fp/hard/crtbegin.o
 *(.init)
 .init          0x000000001ffe4884        0x4 /home/ben/Toradex/LinuxDevelop/FreeRTOS/Colibri-iMX8X/gcc-arm-none-eabi-9-2020-q2-update/bin/../lib/gcc/arm-none-eabi/9.3.1/thumb/v7e-m+fp/hard/crti.o
                0x000000001ffe4884                _init
 .init          0x000000001ffe4888        0x8 /home/ben/Toradex/LinuxDevelop/FreeRTOS/Colibri-iMX8X/gcc-arm-none-eabi-9-2020-q2-update/bin/../lib/gcc/arm-none-eabi/9.3.1/thumb/v7e-m+fp/hard/crtn.o
 *(.fini)
 .fini          0x000000001ffe4890        0x4 /home/ben/Toradex/LinuxDevelop/FreeRTOS/Colibri-iMX8X/gcc-arm-none-eabi-9-2020-q2-update/bin/../lib/gcc/arm-none-eabi/9.3.1/thumb/v7e-m+fp/hard/crti.o
                0x000000001ffe4890                _fini
 .fini          0x000000001ffe4894        0x8 /home/ben/Toradex/LinuxDevelop/FreeRTOS/Colibri-iMX8X/gcc-arm-none-eabi-9-2020-q2-update/bin/../lib/gcc/arm-none-eabi/9.3.1/thumb/v7e-m+fp/hard/crtn.o
                0x000000001ffe48a0                . = ALIGN (0x8)
 *fill*         0x000000001ffe489c        0x4 

.vfp11_veneer   0x000000001ffe48a0        0x0
 .vfp11_veneer  0x000000001ffe48a0        0x0 linker stubs

.v4_bx          0x000000001ffe48a0        0x0
 .v4_bx         0x000000001ffe48a0        0x0 linker stubs

.iplt           0x000000001ffe48a0        0x0
 .iplt          0x000000001ffe48a0        0x0 /home/ben/Toradex/LinuxDevelop/FreeRTOS/Colibri-iMX8X/gcc-arm-none-eabi-9-2020-q2-update/bin/../lib/gcc/arm-none-eabi/9.3.1/thumb/v7e-m+fp/hard/crtbegin.o

.ARM.extab
 *(.ARM.extab* .gnu.linkonce.armextab.*)

.ARM            0x000000001ffe48a0        0x8
                0x000000001ffe48a0                __exidx_start = .
 *(.ARM.exidx*)
 .ARM.exidx     0x000000001ffe48a0        0x8 /home/ben/Toradex/LinuxDevelop/FreeRTOS/Colibri-iMX8X/gcc-arm-none-eabi-9-2020-q2-update/bin/../lib/gcc/arm-none-eabi/9.3.1/../../../../arm-none-eabi/lib/thumb/v7e-m+fp/hard/crt0.o
                                         0x10 (size before relaxing)
 .ARM.exidx     0x000000001ffe48a8        0x0 /home/ben/Toradex/LinuxDevelop/FreeRTOS/Colibri-iMX8X/gcc-arm-none-eabi-9-2020-q2-update/bin/../lib/gcc/arm-none-eabi/9.3.1/thumb/v7e-m+fp/hard/libgcc.a(_udivmoddi4.o)
                                          0x8 (size before relaxing)
                0x000000001ffe48a8                __exidx_end = .

.rel.dyn        0x000000001ffe48a8        0x0
 .rel.iplt      0x000000001ffe48a8        0x0 /home/ben/Toradex/LinuxDevelop/FreeRTOS/Colibri-iMX8X/gcc-arm-none-eabi-9-2020-q2-update/bin/../lib/gcc/arm-none-eabi/9.3.1/thumb/v7e-m+fp/hard/crtbegin.o

.ctors          0x000000001ffe48a8        0x0
                0x000000001ffe48a8                __CTOR_LIST__ = .
 *crtbegin.o(.ctors)
 *crtbegin?.o(.ctors)
 *(EXCLUDE_FILE(*crtend.o *crtend?.o) .ctors)
 *(SORT_BY_NAME(.ctors.*))
 *(.ctors)
                0x000000001ffe48a8                __CTOR_END__ = .

.dtors          0x000000001ffe48a8        0x0
                0x000000001ffe48a8                __DTOR_LIST__ = .
 *crtbegin.o(.dtors)
 *crtbegin?.o(.dtors)
 *(EXCLUDE_FILE(*crtend.o *crtend?.o) .dtors)
 *(SORT_BY_NAME(.dtors.*))
 *(.dtors)
                0x000000001ffe48a8                __DTOR_END__ = .

.preinit_array  0x000000001ffe48a8        0x0
                0x000000001ffe48a8                PROVIDE (__preinit_array_start = .)
 *(.preinit_array*)
                0x000000001ffe48a8                PROVIDE (__preinit_array_end = .)

.init_array     0x000000001ffe48a8        0x4
                0x000000001ffe48a8                PROVIDE (__init_array_start = .)
 *(SORT_BY_NAME(.init_array.*))
 *(.init_array*)
 .init_array    0x000000001ffe48a8        0x4 /home/ben/Toradex/LinuxDevelop/FreeRTOS/Colibri-iMX8X/gcc-arm-none-eabi-9-2020-q2-update/bin/../lib/gcc/arm-none-eabi/9.3.1/thumb/v7e-m+fp/hard/crtbegin.o
                0x000000001ffe48ac                PROVIDE (__init_array_end = .)

.fini_array     0x000000001ffe48ac        0x4
                [!provide]                        PROVIDE (__fini_array_start = .)
 *(SORT_BY_NAME(.fini_array.*))
 *(.fini_array*)
 .fini_array    0x000000001ffe48ac        0x4 /home/ben/Toradex/LinuxDevelop/FreeRTOS/Colibri-iMX8X/gcc-arm-none-eabi-9-2020-q2-update/bin/../lib/gcc/arm-none-eabi/9.3.1/thumb/v7e-m+fp/hard/crtbegin.o
                [!provide]                        PROVIDE (__fini_array_end = .)
                0x000000001ffe48b0                __etext = .
                0x000000001ffe48b0                __DATA_ROM = .

.data           0x0000000020000000       0x98 load address 0x000000001ffe48b0
                0x0000000020000000                . = ALIGN (0x8)
                0x0000000020000000                __DATA_RAM = .
                0x0000000020000000                __data_start__ = .
 *(.data)
 *(.data*)
 .data.lpspi_config
                0x0000000020000000       0x1c CMakeFiles/freertos_hello.elf.dir/home/ben/Toradex/LinuxDevelop/FreeRTOS/Colibri-iMX8X/SDK_2_9_0_MEK-MIMX8QX/boards/mekmimx8qx/rtos_examples/freertos_lpspi/freertos_hello.c.obj
                0x0000000020000000                lpspi_config
 .data.spi_data
                0x000000002000001c       0x10 CMakeFiles/freertos_hello.elf.dir/home/ben/Toradex/LinuxDevelop/FreeRTOS/Colibri-iMX8X/SDK_2_9_0_MEK-MIMX8QX/boards/mekmimx8qx/rtos_examples/freertos_lpspi/freertos_hello.c.obj
                0x000000002000001c                spi_data
 .data.uxCriticalNesting
                0x000000002000002c        0x4 CMakeFiles/freertos_hello.elf.dir/home/ben/Toradex/LinuxDevelop/FreeRTOS/Colibri-iMX8X/SDK_2_9_0_MEK-MIMX8QX/rtos/freertos/freertos_kernel/portable/GCC/ARM_CM4F/port.c.obj
 .data.SystemCoreClock
                0x0000000020000030        0x4 CMakeFiles/freertos_hello.elf.dir/home/ben/Toradex/LinuxDevelop/FreeRTOS/Colibri-iMX8X/SDK_2_9_0_MEK-MIMX8QX/devices/MIMX8QX6/system_MIMX8QX6_cm4.c.obj
                0x0000000020000030                SystemCoreClock
 .data.impure_data
                0x0000000020000034       0x60 /home/ben/Toradex/LinuxDevelop/FreeRTOS/Colibri-iMX8X/gcc-arm-none-eabi-9-2020-q2-update/bin/../lib/gcc/arm-none-eabi/9.3.1/../../../../arm-none-eabi/lib/thumb/v7e-m+fp/hard/libc_nano.a(lib_a-impure.o)
 *(.jcr*)
                0x0000000020000098                . = ALIGN (0x8)
 *fill*         0x0000000020000094        0x4 
                0x0000000020000098                __data_end__ = .
                0x000000001ffe0000                __CACHE_REGION_START = ORIGIN (m_interrupts)
                0x0000000000000000                __CACHE_REGION_SIZE = 0x0
                0x000000001ffe4948                __NDATA_ROM = (__DATA_ROM + SIZEOF (.data))

.igot.plt       0x0000000020000098        0x0 load address 0x000000001ffe4948
 .igot.plt      0x0000000020000098        0x0 /home/ben/Toradex/LinuxDevelop/FreeRTOS/Colibri-iMX8X/gcc-arm-none-eabi-9-2020-q2-update/bin/../lib/gcc/arm-none-eabi/9.3.1/thumb/v7e-m+fp/hard/crtbegin.o

.ncache.init    0x0000000088000000        0x0 load address 0x000000001ffe4948
                0x0000000088000000                __noncachedata_start__ = .
 *(NonCacheable.init)
                0x0000000088000000                . = ALIGN (0x4)
                0x0000000088000000                __noncachedata_init_end__ = .
                0x0000000088000000                . = __noncachedata_init_end__

.ncache         0x0000000088000000        0x0
 *(NonCacheable)
                0x0000000088000000                . = ALIGN (0x4)
                0x0000000088000000                __noncachedata_end__ = .
                0x000000001ffe4948                __DATA_END = (__NDATA_ROM + SIZEOF (.ncache.init))
                0x0000000020000000                text_end = (ORIGIN (m_text) + LENGTH (m_text))
                0x0000000000000001                ASSERT ((__DATA_END <= text_end), region m_text overflowed with text and data)

.bss            0x0000000020000098     0x2b78 load address 0x000000001ffe4948
                0x0000000020000098                . = ALIGN (0x8)
                0x0000000020000098                __START_BSS = .
                0x0000000020000098                __bss_start__ = .
 *(.bss)
 .bss           0x0000000020000098       0x1c /home/ben/Toradex/LinuxDevelop/FreeRTOS/Colibri-iMX8X/gcc-arm-none-eabi-9-2020-q2-update/bin/../lib/gcc/arm-none-eabi/9.3.1/thumb/v7e-m+fp/hard/crtbegin.o
 *(.bss*)
 .bss.handle    0x00000000200000b4       0x44 CMakeFiles/freertos_hello.elf.dir/home/ben/Toradex/LinuxDevelop/FreeRTOS/Colibri-iMX8X/SDK_2_9_0_MEK-MIMX8QX/boards/mekmimx8qx/rtos_examples/freertos_lpspi/freertos_hello.c.obj
                0x00000000200000b4                handle
 .bss.recv_buffer
                0x00000000200000f8       0x80 CMakeFiles/freertos_hello.elf.dir/home/ben/Toradex/LinuxDevelop/FreeRTOS/Colibri-iMX8X/SDK_2_9_0_MEK-MIMX8QX/boards/mekmimx8qx/rtos_examples/freertos_lpspi/freertos_hello.c.obj
                0x00000000200000f8                recv_buffer
 .bss.send_buffer
                0x0000000020000178       0x80 CMakeFiles/freertos_hello.elf.dir/home/ben/Toradex/LinuxDevelop/FreeRTOS/Colibri-iMX8X/SDK_2_9_0_MEK-MIMX8QX/boards/mekmimx8qx/rtos_examples/freertos_lpspi/freertos_hello.c.obj
                0x0000000020000178                send_buffer
 .bss.ipcHandle
                0x00000000200001f8        0x4 CMakeFiles/freertos_hello.elf.dir/home/ben/Toradex/LinuxDevelop/FreeRTOS/Colibri-iMX8X/SDK_2_9_0_MEK-MIMX8QX/boards/mekmimx8qx/rtos_examples/freertos_lpspi/board.c.obj
 .bss.ipcHandle
                0x00000000200001fc        0x4 CMakeFiles/freertos_hello.elf.dir/home/ben/Toradex/LinuxDevelop/FreeRTOS/Colibri-iMX8X/SDK_2_9_0_MEK-MIMX8QX/devices/MIMX8QX6/drivers/fsl_clock.c.obj
 .bss.g_lpspiDummyData
                0x0000000020000200        0x4 CMakeFiles/freertos_hello.elf.dir/home/ben/Toradex/LinuxDevelop/FreeRTOS/Colibri-iMX8X/SDK_2_9_0_MEK-MIMX8QX/devices/MIMX8QX6/drivers/fsl_lpspi.c.obj
                0x0000000020000200                g_lpspiDummyData
 .bss.s_lpspiHandle
                0x0000000020000204       0x10 CMakeFiles/freertos_hello.elf.dir/home/ben/Toradex/LinuxDevelop/FreeRTOS/Colibri-iMX8X/SDK_2_9_0_MEK-MIMX8QX/devices/MIMX8QX6/drivers/fsl_lpspi.c.obj
 .bss.s_lpspiMasterIsr
                0x0000000020000214        0x4 CMakeFiles/freertos_hello.elf.dir/home/ben/Toradex/LinuxDevelop/FreeRTOS/Colibri-iMX8X/SDK_2_9_0_MEK-MIMX8QX/devices/MIMX8QX6/drivers/fsl_lpspi.c.obj
 .bss.s_lpspiSlaveIsr
                0x0000000020000218        0x4 CMakeFiles/freertos_hello.elf.dir/home/ben/Toradex/LinuxDevelop/FreeRTOS/Colibri-iMX8X/SDK_2_9_0_MEK-MIMX8QX/devices/MIMX8QX6/drivers/fsl_lpspi.c.obj
 .bss.ucMaxSysCallPriority
                0x000000002000021c        0x1 CMakeFiles/freertos_hello.elf.dir/home/ben/Toradex/LinuxDevelop/FreeRTOS/Colibri-iMX8X/SDK_2_9_0_MEK-MIMX8QX/rtos/freertos/freertos_kernel/portable/GCC/ARM_CM4F/port.c.obj
 *fill*         0x000000002000021d        0x3 
 .bss.ulMaxPRIGROUPValue
                0x0000000020000220        0x4 CMakeFiles/freertos_hello.elf.dir/home/ben/Toradex/LinuxDevelop/FreeRTOS/Colibri-iMX8X/SDK_2_9_0_MEK-MIMX8QX/rtos/freertos/freertos_kernel/portable/GCC/ARM_CM4F/port.c.obj
 .bss.xQueueRegistry
                0x0000000020000224       0x40 CMakeFiles/freertos_hello.elf.dir/home/ben/Toradex/LinuxDevelop/FreeRTOS/Colibri-iMX8X/SDK_2_9_0_MEK-MIMX8QX/rtos/freertos/freertos_kernel/queue.c.obj
                0x0000000020000224                xQueueRegistry
 .bss.pxCurrentTCB
                0x0000000020000264        0x4 CMakeFiles/freertos_hello.elf.dir/home/ben/Toradex/LinuxDevelop/FreeRTOS/Colibri-iMX8X/SDK_2_9_0_MEK-MIMX8QX/rtos/freertos/freertos_kernel/tasks.c.obj
                0x0000000020000264                pxCurrentTCB
 .bss.pxDelayedTaskList
                0x0000000020000268        0x4 CMakeFiles/freertos_hello.elf.dir/home/ben/Toradex/LinuxDevelop/FreeRTOS/Colibri-iMX8X/SDK_2_9_0_MEK-MIMX8QX/rtos/freertos/freertos_kernel/tasks.c.obj
 .bss.pxOverflowDelayedTaskList
                0x000000002000026c        0x4 CMakeFiles/freertos_hello.elf.dir/home/ben/Toradex/LinuxDevelop/FreeRTOS/Colibri-iMX8X/SDK_2_9_0_MEK-MIMX8QX/rtos/freertos/freertos_kernel/tasks.c.obj
 .bss.pxReadyTasksLists
                0x0000000020000270       0x64 CMakeFiles/freertos_hello.elf.dir/home/ben/Toradex/LinuxDevelop/FreeRTOS/Colibri-iMX8X/SDK_2_9_0_MEK-MIMX8QX/rtos/freertos/freertos_kernel/tasks.c.obj
 .bss.uxCurrentNumberOfTasks
                0x00000000200002d4        0x4 CMakeFiles/freertos_hello.elf.dir/home/ben/Toradex/LinuxDevelop/FreeRTOS/Colibri-iMX8X/SDK_2_9_0_MEK-MIMX8QX/rtos/freertos/freertos_kernel/tasks.c.obj
 .bss.uxDeletedTasksWaitingCleanUp
                0x00000000200002d8        0x4 CMakeFiles/freertos_hello.elf.dir/home/ben/Toradex/LinuxDevelop/FreeRTOS/Colibri-iMX8X/SDK_2_9_0_MEK-MIMX8QX/rtos/freertos/freertos_kernel/tasks.c.obj
 .bss.uxSchedulerSuspended
                0x00000000200002dc        0x4 CMakeFiles/freertos_hello.elf.dir/home/ben/Toradex/LinuxDevelop/FreeRTOS/Colibri-iMX8X/SDK_2_9_0_MEK-MIMX8QX/rtos/freertos/freertos_kernel/tasks.c.obj
 .bss.uxTaskNumber
                0x00000000200002e0        0x4 CMakeFiles/freertos_hello.elf.dir/home/ben/Toradex/LinuxDevelop/FreeRTOS/Colibri-iMX8X/SDK_2_9_0_MEK-MIMX8QX/rtos/freertos/freertos_kernel/tasks.c.obj
 .bss.uxTopReadyPriority
                0x00000000200002e4        0x4 CMakeFiles/freertos_hello.elf.dir/home/ben/Toradex/LinuxDevelop/FreeRTOS/Colibri-iMX8X/SDK_2_9_0_MEK-MIMX8QX/rtos/freertos/freertos_kernel/tasks.c.obj
 .bss.xDelayedTaskList1
                0x00000000200002e8       0x14 CMakeFiles/freertos_hello.elf.dir/home/ben/Toradex/LinuxDevelop/FreeRTOS/Colibri-iMX8X/SDK_2_9_0_MEK-MIMX8QX/rtos/freertos/freertos_kernel/tasks.c.obj
 .bss.xDelayedTaskList2
                0x00000000200002fc       0x14 CMakeFiles/freertos_hello.elf.dir/home/ben/Toradex/LinuxDevelop/FreeRTOS/Colibri-iMX8X/SDK_2_9_0_MEK-MIMX8QX/rtos/freertos/freertos_kernel/tasks.c.obj
 .bss.xIdleTaskHandle
                0x0000000020000310        0x4 CMakeFiles/freertos_hello.elf.dir/home/ben/Toradex/LinuxDevelop/FreeRTOS/Colibri-iMX8X/SDK_2_9_0_MEK-MIMX8QX/rtos/freertos/freertos_kernel/tasks.c.obj
 .bss.xNextTaskUnblockTime
                0x0000000020000314        0x4 CMakeFiles/freertos_hello.elf.dir/home/ben/Toradex/LinuxDevelop/FreeRTOS/Colibri-iMX8X/SDK_2_9_0_MEK-MIMX8QX/rtos/freertos/freertos_kernel/tasks.c.obj
 .bss.xNumOfOverflows
                0x0000000020000318        0x4 CMakeFiles/freertos_hello.elf.dir/home/ben/Toradex/LinuxDevelop/FreeRTOS/Colibri-iMX8X/SDK_2_9_0_MEK-MIMX8QX/rtos/freertos/freertos_kernel/tasks.c.obj
 .bss.xPendedTicks
                0x000000002000031c        0x4 CMakeFiles/freertos_hello.elf.dir/home/ben/Toradex/LinuxDevelop/FreeRTOS/Colibri-iMX8X/SDK_2_9_0_MEK-MIMX8QX/rtos/freertos/freertos_kernel/tasks.c.obj
 .bss.xPendingReadyList
                0x0000000020000320       0x14 CMakeFiles/freertos_hello.elf.dir/home/ben/Toradex/LinuxDevelop/FreeRTOS/Colibri-iMX8X/SDK_2_9_0_MEK-MIMX8QX/rtos/freertos/freertos_kernel/tasks.c.obj
 .bss.xSchedulerRunning
                0x0000000020000334        0x4 CMakeFiles/freertos_hello.elf.dir/home/ben/Toradex/LinuxDevelop/FreeRTOS/Colibri-iMX8X/SDK_2_9_0_MEK-MIMX8QX/rtos/freertos/freertos_kernel/tasks.c.obj
 .bss.xSuspendedTaskList
                0x0000000020000338       0x14 CMakeFiles/freertos_hello.elf.dir/home/ben/Toradex/LinuxDevelop/FreeRTOS/Colibri-iMX8X/SDK_2_9_0_MEK-MIMX8QX/rtos/freertos/freertos_kernel/tasks.c.obj
 .bss.xTasksWaitingTermination
                0x000000002000034c       0x14 CMakeFiles/freertos_hello.elf.dir/home/ben/Toradex/LinuxDevelop/FreeRTOS/Colibri-iMX8X/SDK_2_9_0_MEK-MIMX8QX/rtos/freertos/freertos_kernel/tasks.c.obj
 .bss.xTickCount
                0x0000000020000360        0x4 CMakeFiles/freertos_hello.elf.dir/home/ben/Toradex/LinuxDevelop/FreeRTOS/Colibri-iMX8X/SDK_2_9_0_MEK-MIMX8QX/rtos/freertos/freertos_kernel/tasks.c.obj
 .bss.xYieldPending
                0x0000000020000364        0x4 CMakeFiles/freertos_hello.elf.dir/home/ben/Toradex/LinuxDevelop/FreeRTOS/Colibri-iMX8X/SDK_2_9_0_MEK-MIMX8QX/rtos/freertos/freertos_kernel/tasks.c.obj
 .bss.pxCurrentTimerList
                0x0000000020000368        0x4 CMakeFiles/freertos_hello.elf.dir/home/ben/Toradex/LinuxDevelop/FreeRTOS/Colibri-iMX8X/SDK_2_9_0_MEK-MIMX8QX/rtos/freertos/freertos_kernel/timers.c.obj
 .bss.pxOverflowTimerList
                0x000000002000036c        0x4 CMakeFiles/freertos_hello.elf.dir/home/ben/Toradex/LinuxDevelop/FreeRTOS/Colibri-iMX8X/SDK_2_9_0_MEK-MIMX8QX/rtos/freertos/freertos_kernel/timers.c.obj
 .bss.xActiveTimerList1
                0x0000000020000370       0x14 CMakeFiles/freertos_hello.elf.dir/home/ben/Toradex/LinuxDevelop/FreeRTOS/Colibri-iMX8X/SDK_2_9_0_MEK-MIMX8QX/rtos/freertos/freertos_kernel/timers.c.obj
 .bss.xActiveTimerList2
                0x0000000020000384       0x14 CMakeFiles/freertos_hello.elf.dir/home/ben/Toradex/LinuxDevelop/FreeRTOS/Colibri-iMX8X/SDK_2_9_0_MEK-MIMX8QX/rtos/freertos/freertos_kernel/timers.c.obj
 .bss.xLastTime.6367
                0x0000000020000398        0x4 CMakeFiles/freertos_hello.elf.dir/home/ben/Toradex/LinuxDevelop/FreeRTOS/Colibri-iMX8X/SDK_2_9_0_MEK-MIMX8QX/rtos/freertos/freertos_kernel/timers.c.obj
 .bss.xTimerQueue
                0x000000002000039c        0x4 CMakeFiles/freertos_hello.elf.dir/home/ben/Toradex/LinuxDevelop/FreeRTOS/Colibri-iMX8X/SDK_2_9_0_MEK-MIMX8QX/rtos/freertos/freertos_kernel/timers.c.obj
 .bss.xTimerTaskHandle
                0x00000000200003a0        0x4 CMakeFiles/freertos_hello.elf.dir/home/ben/Toradex/LinuxDevelop/FreeRTOS/Colibri-iMX8X/SDK_2_9_0_MEK-MIMX8QX/rtos/freertos/freertos_kernel/timers.c.obj
 .bss.pxEnd     0x00000000200003a4        0x4 CMakeFiles/freertos_hello.elf.dir/home/ben/Toradex/LinuxDevelop/FreeRTOS/Colibri-iMX8X/SDK_2_9_0_MEK-MIMX8QX/rtos/freertos/freertos_kernel/portable/MemMang/heap_4.c.obj
 .bss.ucHeap    0x00000000200003a8     0x2800 CMakeFiles/freertos_hello.elf.dir/home/ben/Toradex/LinuxDevelop/FreeRTOS/Colibri-iMX8X/SDK_2_9_0_MEK-MIMX8QX/rtos/freertos/freertos_kernel/portable/MemMang/heap_4.c.obj
 .bss.xBlockAllocatedBit
                0x0000000020002ba8        0x4 CMakeFiles/freertos_hello.elf.dir/home/ben/Toradex/LinuxDevelop/FreeRTOS/Colibri-iMX8X/SDK_2_9_0_MEK-MIMX8QX/rtos/freertos/freertos_kernel/portable/MemMang/heap_4.c.obj
 .bss.xFreeBytesRemaining
                0x0000000020002bac        0x4 CMakeFiles/freertos_hello.elf.dir/home/ben/Toradex/LinuxDevelop/FreeRTOS/Colibri-iMX8X/SDK_2_9_0_MEK-MIMX8QX/rtos/freertos/freertos_kernel/portable/MemMang/heap_4.c.obj
 .bss.xMinimumEverFreeBytesRemaining
                0x0000000020002bb0        0x4 CMakeFiles/freertos_hello.elf.dir/home/ben/Toradex/LinuxDevelop/FreeRTOS/Colibri-iMX8X/SDK_2_9_0_MEK-MIMX8QX/rtos/freertos/freertos_kernel/portable/MemMang/heap_4.c.obj
 .bss.xNumberOfSuccessfulAllocations
                0x0000000020002bb4        0x4 CMakeFiles/freertos_hello.elf.dir/home/ben/Toradex/LinuxDevelop/FreeRTOS/Colibri-iMX8X/SDK_2_9_0_MEK-MIMX8QX/rtos/freertos/freertos_kernel/portable/MemMang/heap_4.c.obj
 .bss.xNumberOfSuccessfulFrees
                0x0000000020002bb8        0x4 CMakeFiles/freertos_hello.elf.dir/home/ben/Toradex/LinuxDevelop/FreeRTOS/Colibri-iMX8X/SDK_2_9_0_MEK-MIMX8QX/rtos/freertos/freertos_kernel/portable/MemMang/heap_4.c.obj
 .bss.xStart    0x0000000020002bbc        0x8 CMakeFiles/freertos_hello.elf.dir/home/ben/Toradex/LinuxDevelop/FreeRTOS/Colibri-iMX8X/SDK_2_9_0_MEK-MIMX8QX/rtos/freertos/freertos_kernel/portable/MemMang/heap_4.c.obj
 .bss.g_serialHandle
                0x0000000020002bc4        0x4 CMakeFiles/freertos_hello.elf.dir/home/ben/Toradex/LinuxDevelop/FreeRTOS/Colibri-iMX8X/SDK_2_9_0_MEK-MIMX8QX/devices/MIMX8QX6/utilities/debug_console/fsl_debug_console.c.obj
                0x0000000020002bc4                g_serialHandle
 .bss.s_debugConsoleReadWaitSemaphore
                0x0000000020002bc8        0x1 CMakeFiles/freertos_hello.elf.dir/home/ben/Toradex/LinuxDevelop/FreeRTOS/Colibri-iMX8X/SDK_2_9_0_MEK-MIMX8QX/devices/MIMX8QX6/utilities/debug_console/fsl_debug_console.c.obj
 *fill*         0x0000000020002bc9        0x3 
 .bss.s_debugConsoleState
                0x0000000020002bcc       0x20 CMakeFiles/freertos_hello.elf.dir/home/ben/Toradex/LinuxDevelop/FreeRTOS/Colibri-iMX8X/SDK_2_9_0_MEK-MIMX8QX/devices/MIMX8QX6/utilities/debug_console/fsl_debug_console.c.obj
 .bss.s_lpuartHandle
                0x0000000020002bec       0x18 CMakeFiles/freertos_hello.elf.dir/home/ben/Toradex/LinuxDevelop/FreeRTOS/Colibri-iMX8X/SDK_2_9_0_MEK-MIMX8QX/devices/MIMX8QX6/drivers/fsl_lpuart.c.obj
 .bss.s_lpuartIsr
                0x0000000020002c04        0x4 CMakeFiles/freertos_hello.elf.dir/home/ben/Toradex/LinuxDevelop/FreeRTOS/Colibri-iMX8X/SDK_2_9_0_MEK-MIMX8QX/devices/MIMX8QX6/drivers/fsl_lpuart.c.obj
 .bss.ipcHandle
                0x0000000020002c08        0x4 CMakeFiles/freertos_hello.elf.dir/home/ben/Toradex/LinuxDevelop/FreeRTOS/Colibri-iMX8X/SDK_2_9_0_MEK-MIMX8QX/devices/MIMX8QX6/system_MIMX8QX6_cm4.c.obj
 *(COMMON)
                0x0000000020002c10                . = ALIGN (0x8)
 *fill*         0x0000000020002c0c        0x4 
                0x0000000020002c10                __bss_end__ = .
                0x0000000020002c10                __END_BSS = .

.heap           0x0000000020002c10      0x400 load address 0x000000001ffe74c0
                0x0000000020002c10                . = ALIGN (0x8)
                0x0000000020002c10                __end__ = .
                0x0000000020002c10                PROVIDE (end = .)
                0x0000000020002c10                __HeapBase = .
                0x0000000020003010                . = (. + HEAP_SIZE)
 *fill*         0x0000000020002c10      0x400 
                0x0000000020003010                __HeapLimit = .
                0x0000000020003010                __heap_limit = .

.stack          0x0000000020003010      0x400 load address 0x000000001ffe78c0
                0x0000000020003010                . = ALIGN (0x8)
                0x0000000020003410                . = (. + STACK_SIZE)
 *fill*         0x0000000020003010      0x400 
                0x0000000020020000                __StackTop = (ORIGIN (m_data) + LENGTH (m_data))
                0x000000002001fc00                __StackLimit = (__StackTop - STACK_SIZE)
                0x0000000020020000                PROVIDE (__stack = __StackTop)

.ARM.attributes
                0x0000000000000000       0x30
 *(.ARM.attributes)
 .ARM.attributes
                0x0000000000000000       0x1e /home/ben/Toradex/LinuxDevelop/FreeRTOS/Colibri-iMX8X/gcc-arm-none-eabi-9-2020-q2-update/bin/../lib/gcc/arm-none-eabi/9.3.1/thumb/v7e-m+fp/hard/crti.o
 .ARM.attributes
                0x000000000000001e       0x34 /home/ben/Toradex/LinuxDevelop/FreeRTOS/Colibri-iMX8X/gcc-arm-none-eabi-9-2020-q2-update/bin/../lib/gcc/arm-none-eabi/9.3.1/thumb/v7e-m+fp/hard/crtbegin.o
 .ARM.attributes
                0x0000000000000052       0x1c /home/ben/Toradex/LinuxDevelop/FreeRTOS/Colibri-iMX8X/gcc-arm-none-eabi-9-2020-q2-update/bin/../lib/gcc/arm-none-eabi/9.3.1/../../../../arm-none-eabi/lib/thumb/v7e-m+fp/hard/crt0.o
 .ARM.attributes
                0x000000000000006e       0x34 CMakeFiles/freertos_hello.elf.dir/home/ben/Toradex/LinuxDevelop/FreeRTOS/Colibri-iMX8X/SDK_2_9_0_MEK-MIMX8QX/boards/mekmimx8qx/rtos_examples/freertos_lpspi/freertos_hello.c.obj
 .ARM.attributes
                0x00000000000000a2       0x34 CMakeFiles/freertos_hello.elf.dir/home/ben/Toradex/LinuxDevelop/FreeRTOS/Colibri-iMX8X/SDK_2_9_0_MEK-MIMX8QX/boards/mekmimx8qx/rtos_examples/freertos_lpspi/pin_mux.c.obj
 .ARM.attributes
                0x00000000000000d6       0x34 CMakeFiles/freertos_hello.elf.dir/home/ben/Toradex/LinuxDevelop/FreeRTOS/Colibri-iMX8X/SDK_2_9_0_MEK-MIMX8QX/boards/mekmimx8qx/rtos_examples/freertos_lpspi/board.c.obj
 .ARM.attributes
                0x000000000000010a       0x34 CMakeFiles/freertos_hello.elf.dir/home/ben/Toradex/LinuxDevelop/FreeRTOS/Colibri-iMX8X/SDK_2_9_0_MEK-MIMX8QX/boards/mekmimx8qx/rtos_examples/freertos_lpspi/clock_config.c.obj
 .ARM.attributes
                0x000000000000013e       0x39 CMakeFiles/freertos_hello.elf.dir/home/ben/Toradex/LinuxDevelop/FreeRTOS/Colibri-iMX8X/SDK_2_9_0_MEK-MIMX8QX/boards/mekmimx8qx/rtos_examples/freertos_lpspi/empty_rsc_table.c.obj
 .ARM.attributes
                0x0000000000000177       0x34 CMakeFiles/freertos_hello.elf.dir/home/ben/Toradex/LinuxDevelop/FreeRTOS/Colibri-iMX8X/SDK_2_9_0_MEK-MIMX8QX/devices/MIMX8QX6/drivers/fsl_clock.c.obj
 .ARM.attributes
                0x00000000000001ab       0x34 CMakeFiles/freertos_hello.elf.dir/home/ben/Toradex/LinuxDevelop/FreeRTOS/Colibri-iMX8X/SDK_2_9_0_MEK-MIMX8QX/devices/MIMX8QX6/scfw_api/main/ipc_imx8qx.c.obj
 .ARM.attributes
                0x00000000000001df       0x34 CMakeFiles/freertos_hello.elf.dir/home/ben/Toradex/LinuxDevelop/FreeRTOS/Colibri-iMX8X/SDK_2_9_0_MEK-MIMX8QX/devices/MIMX8QX6/scfw_api/svc/misc/misc_rpc_clnt.c.obj
 .ARM.attributes
                0x0000000000000213       0x34 CMakeFiles/freertos_hello.elf.dir/home/ben/Toradex/LinuxDevelop/FreeRTOS/Colibri-iMX8X/SDK_2_9_0_MEK-MIMX8QX/devices/MIMX8QX6/scfw_api/svc/pad/pad_rpc_clnt.c.obj
 .ARM.attributes
                0x0000000000000247       0x34 CMakeFiles/freertos_hello.elf.dir/home/ben/Toradex/LinuxDevelop/FreeRTOS/Colibri-iMX8X/SDK_2_9_0_MEK-MIMX8QX/devices/MIMX8QX6/scfw_api/svc/pm/pm_rpc_clnt.c.obj
 .ARM.attributes
                0x000000000000027b       0x34 CMakeFiles/freertos_hello.elf.dir/home/ben/Toradex/LinuxDevelop/FreeRTOS/Colibri-iMX8X/SDK_2_9_0_MEK-MIMX8QX/devices/MIMX8QX6/drivers/fsl_lpspi.c.obj
 .ARM.attributes
                0x00000000000002af       0x34 CMakeFiles/freertos_hello.elf.dir/home/ben/Toradex/LinuxDevelop/FreeRTOS/Colibri-iMX8X/SDK_2_9_0_MEK-MIMX8QX/devices/MIMX8QX6/drivers/fsl_lpspi_freertos.c.obj
 .ARM.attributes
                0x00000000000002e3       0x34 CMakeFiles/freertos_hello.elf.dir/home/ben/Toradex/LinuxDevelop/FreeRTOS/Colibri-iMX8X/SDK_2_9_0_MEK-MIMX8QX/rtos/freertos/freertos_kernel/list.c.obj
 .ARM.attributes
                0x0000000000000317       0x34 CMakeFiles/freertos_hello.elf.dir/home/ben/Toradex/LinuxDevelop/FreeRTOS/Colibri-iMX8X/SDK_2_9_0_MEK-MIMX8QX/rtos/freertos/freertos_kernel/portable/GCC/ARM_CM4F/port.c.obj
 .ARM.attributes
                0x000000000000034b       0x34 CMakeFiles/freertos_hello.elf.dir/home/ben/Toradex/LinuxDevelop/FreeRTOS/Colibri-iMX8X/SDK_2_9_0_MEK-MIMX8QX/rtos/freertos/freertos_kernel/queue.c.obj
 .ARM.attributes
                0x000000000000037f       0x34 CMakeFiles/freertos_hello.elf.dir/home/ben/Toradex/LinuxDevelop/FreeRTOS/Colibri-iMX8X/SDK_2_9_0_MEK-MIMX8QX/rtos/freertos/freertos_kernel/tasks.c.obj
 .ARM.attributes
                0x00000000000003b3       0x34 CMakeFiles/freertos_hello.elf.dir/home/ben/Toradex/LinuxDevelop/FreeRTOS/Colibri-iMX8X/SDK_2_9_0_MEK-MIMX8QX/rtos/freertos/freertos_kernel/timers.c.obj
 .ARM.attributes
                0x00000000000003e7       0x34 CMakeFiles/freertos_hello.elf.dir/home/ben/Toradex/LinuxDevelop/FreeRTOS/Colibri-iMX8X/SDK_2_9_0_MEK-MIMX8QX/rtos/freertos/freertos_kernel/portable/MemMang/heap_4.c.obj
 .ARM.attributes
                0x000000000000041b       0x34 CMakeFiles/freertos_hello.elf.dir/home/ben/Toradex/LinuxDevelop/FreeRTOS/Colibri-iMX8X/SDK_2_9_0_MEK-MIMX8QX/devices/MIMX8QX6/utilities/str/fsl_str.c.obj
 .ARM.attributes
                0x000000000000044f       0x34 CMakeFiles/freertos_hello.elf.dir/home/ben/Toradex/LinuxDevelop/FreeRTOS/Colibri-iMX8X/SDK_2_9_0_MEK-MIMX8QX/devices/MIMX8QX6/utilities/debug_console/fsl_debug_console.c.obj
 .ARM.attributes
                0x0000000000000483       0x34 CMakeFiles/freertos_hello.elf.dir/home/ben/Toradex/LinuxDevelop/FreeRTOS/Colibri-iMX8X/SDK_2_9_0_MEK-MIMX8QX/components/serial_manager/fsl_component_serial_manager.c.obj
 .ARM.attributes
                0x00000000000004b7       0x34 CMakeFiles/freertos_hello.elf.dir/home/ben/Toradex/LinuxDevelop/FreeRTOS/Colibri-iMX8X/SDK_2_9_0_MEK-MIMX8QX/components/serial_manager/fsl_component_serial_port_uart.c.obj
 .ARM.attributes
                0x00000000000004eb       0x34 CMakeFiles/freertos_hello.elf.dir/home/ben/Toradex/LinuxDevelop/FreeRTOS/Colibri-iMX8X/SDK_2_9_0_MEK-MIMX8QX/devices/MIMX8QX6/drivers/fsl_lpuart.c.obj
 .ARM.attributes
                0x000000000000051f       0x34 CMakeFiles/freertos_hello.elf.dir/home/ben/Toradex/LinuxDevelop/FreeRTOS/Colibri-iMX8X/SDK_2_9_0_MEK-MIMX8QX/components/uart/fsl_adapter_lpuart.c.obj
 .ARM.attributes
                0x0000000000000553       0x1f CMakeFiles/freertos_hello.elf.dir/home/ben/Toradex/LinuxDevelop/FreeRTOS/Colibri-iMX8X/SDK_2_9_0_MEK-MIMX8QX/devices/MIMX8QX6/gcc/startup_MIMX8QX6_cm4.S.obj
 .ARM.attributes
                0x0000000000000572       0x34 CMakeFiles/freertos_hello.elf.dir/home/ben/Toradex/LinuxDevelop/FreeRTOS/Colibri-iMX8X/SDK_2_9_0_MEK-MIMX8QX/devices/MIMX8QX6/system_MIMX8QX6_cm4.c.obj
 .ARM.attributes
                0x00000000000005a6       0x34 /home/ben/Toradex/LinuxDevelop/FreeRTOS/Colibri-iMX8X/gcc-arm-none-eabi-9-2020-q2-update/bin/../lib/gcc/arm-none-eabi/9.3.1/../../../../arm-none-eabi/lib/thumb/v7e-m+fp/hard/libc_nano.a(lib_a-exit.o)
 .ARM.attributes
                0x00000000000005da       0x32 /home/ben/Toradex/LinuxDevelop/FreeRTOS/Colibri-iMX8X/gcc-arm-none-eabi-9-2020-q2-update/bin/../lib/gcc/arm-none-eabi/9.3.1/../../../../arm-none-eabi/lib/thumb/v7e-m+fp/hard/libc_nano.a(lib_a-impure.o)
 .ARM.attributes
                0x000000000000060c       0x34 /home/ben/Toradex/LinuxDevelop/FreeRTOS/Colibri-iMX8X/gcc-arm-none-eabi-9-2020-q2-update/bin/../lib/gcc/arm-none-eabi/9.3.1/../../../../arm-none-eabi/lib/thumb/v7e-m+fp/hard/libc_nano.a(lib_a-init.o)
 .ARM.attributes
                0x0000000000000640       0x34 /home/ben/Toradex/LinuxDevelop/FreeRTOS/Colibri-iMX8X/gcc-arm-none-eabi-9-2020-q2-update/bin/../lib/gcc/arm-none-eabi/9.3.1/../../../../arm-none-eabi/lib/thumb/v7e-m+fp/hard/libc_nano.a(lib_a-memcpy-stub.o)
 .ARM.attributes
                0x0000000000000674       0x34 /home/ben/Toradex/LinuxDevelop/FreeRTOS/Colibri-iMX8X/gcc-arm-none-eabi-9-2020-q2-update/bin/../lib/gcc/arm-none-eabi/9.3.1/../../../../arm-none-eabi/lib/thumb/v7e-m+fp/hard/libc_nano.a(lib_a-memset.o)
 .ARM.attributes
                0x00000000000006a8       0x17 /home/ben/Toradex/LinuxDevelop/FreeRTOS/Colibri-iMX8X/gcc-arm-none-eabi-9-2020-q2-update/bin/../lib/gcc/arm-none-eabi/9.3.1/../../../../arm-none-eabi/lib/thumb/v7e-m+fp/hard/libc_nano.a(lib_a-strlen.o)
 .ARM.attributes
                0x00000000000006bf       0x1e /home/ben/Toradex/LinuxDevelop/FreeRTOS/Colibri-iMX8X/gcc-arm-none-eabi-9-2020-q2-update/bin/../lib/gcc/arm-none-eabi/9.3.1/thumb/v7e-m+fp/hard/libgcc.a(_aeabi_uldivmod.o)
 .ARM.attributes
                0x00000000000006dd       0x34 /home/ben/Toradex/LinuxDevelop/FreeRTOS/Colibri-iMX8X/gcc-arm-none-eabi-9-2020-q2-update/bin/../lib/gcc/arm-none-eabi/9.3.1/thumb/v7e-m+fp/hard/libgcc.a(_udivmoddi4.o)
 .ARM.attributes
                0x0000000000000711       0x1e /home/ben/Toradex/LinuxDevelop/FreeRTOS/Colibri-iMX8X/gcc-arm-none-eabi-9-2020-q2-update/bin/../lib/gcc/arm-none-eabi/9.3.1/thumb/v7e-m+fp/hard/libgcc.a(_dvmd_tls.o)
 .ARM.attributes
                0x000000000000072f       0x34 /home/ben/Toradex/LinuxDevelop/FreeRTOS/Colibri-iMX8X/gcc-arm-none-eabi-9-2020-q2-update/bin/../lib/gcc/arm-none-eabi/9.3.1/../../../../arm-none-eabi/lib/thumb/v7e-m+fp/hard/libnosys.a(_exit.o)
 .ARM.attributes
                0x0000000000000763       0x1e /home/ben/Toradex/LinuxDevelop/FreeRTOS/Colibri-iMX8X/gcc-arm-none-eabi-9-2020-q2-update/bin/../lib/gcc/arm-none-eabi/9.3.1/thumb/v7e-m+fp/hard/crtn.o
                0x0000000000000001                ASSERT ((__StackLimit >= __HeapLimit), region m_data overflowed with stack and heap)
OUTPUT(release/freertos_hello.elf elf32-littlearm)
LOAD linker stubs

.comment        0x0000000000000000       0x4c
 .comment       0x0000000000000000       0x4c CMakeFiles/freertos_hello.elf.dir/home/ben/Toradex/LinuxDevelop/FreeRTOS/Colibri-iMX8X/SDK_2_9_0_MEK-MIMX8QX/boards/mekmimx8qx/rtos_examples/freertos_lpspi/freertos_hello.c.obj
                                         0x4d (size before relaxing)
 .comment       0x000000000000004c       0x4d CMakeFiles/freertos_hello.elf.dir/home/ben/Toradex/LinuxDevelop/FreeRTOS/Colibri-iMX8X/SDK_2_9_0_MEK-MIMX8QX/boards/mekmimx8qx/rtos_examples/freertos_lpspi/pin_mux.c.obj
 .comment       0x000000000000004c       0x4d CMakeFiles/freertos_hello.elf.dir/home/ben/Toradex/LinuxDevelop/FreeRTOS/Colibri-iMX8X/SDK_2_9_0_MEK-MIMX8QX/boards/mekmimx8qx/rtos_examples/freertos_lpspi/board.c.obj
 .comment       0x000000000000004c       0x4d CMakeFiles/freertos_hello.elf.dir/home/ben/Toradex/LinuxDevelop/FreeRTOS/Colibri-iMX8X/SDK_2_9_0_MEK-MIMX8QX/boards/mekmimx8qx/rtos_examples/freertos_lpspi/clock_config.c.obj
 .comment       0x000000000000004c       0x4d CMakeFiles/freertos_hello.elf.dir/home/ben/Toradex/LinuxDevelop/FreeRTOS/Colibri-iMX8X/SDK_2_9_0_MEK-MIMX8QX/boards/mekmimx8qx/rtos_examples/freertos_lpspi/empty_rsc_table.c.obj
 .comment       0x000000000000004c       0x4d CMakeFiles/freertos_hello.elf.dir/home/ben/Toradex/LinuxDevelop/FreeRTOS/Colibri-iMX8X/SDK_2_9_0_MEK-MIMX8QX/devices/MIMX8QX6/drivers/fsl_clock.c.obj
 .comment       0x000000000000004c       0x4d CMakeFiles/freertos_hello.elf.dir/home/ben/Toradex/LinuxDevelop/FreeRTOS/Colibri-iMX8X/SDK_2_9_0_MEK-MIMX8QX/devices/MIMX8QX6/scfw_api/main/ipc_imx8qx.c.obj
 .comment       0x000000000000004c       0x4d CMakeFiles/freertos_hello.elf.dir/home/ben/Toradex/LinuxDevelop/FreeRTOS/Colibri-iMX8X/SDK_2_9_0_MEK-MIMX8QX/devices/MIMX8QX6/scfw_api/svc/misc/misc_rpc_clnt.c.obj
 .comment       0x000000000000004c       0x4d CMakeFiles/freertos_hello.elf.dir/home/ben/Toradex/LinuxDevelop/FreeRTOS/Colibri-iMX8X/SDK_2_9_0_MEK-MIMX8QX/devices/MIMX8QX6/scfw_api/svc/pad/pad_rpc_clnt.c.obj
 .comment       0x000000000000004c       0x4d CMakeFiles/freertos_hello.elf.dir/home/ben/Toradex/LinuxDevelop/FreeRTOS/Colibri-iMX8X/SDK_2_9_0_MEK-MIMX8QX/devices/MIMX8QX6/scfw_api/svc/pm/pm_rpc_clnt.c.obj
 .comment       0x000000000000004c       0x4d CMakeFiles/freertos_hello.elf.dir/home/ben/Toradex/LinuxDevelop/FreeRTOS/Colibri-iMX8X/SDK_2_9_0_MEK-MIMX8QX/devices/MIMX8QX6/drivers/fsl_lpspi.c.obj
 .comment       0x000000000000004c       0x4d CMakeFiles/freertos_hello.elf.dir/home/ben/Toradex/LinuxDevelop/FreeRTOS/Colibri-iMX8X/SDK_2_9_0_MEK-MIMX8QX/devices/MIMX8QX6/drivers/fsl_lpspi_freertos.c.obj
 .comment       0x000000000000004c       0x4d CMakeFiles/freertos_hello.elf.dir/home/ben/Toradex/LinuxDevelop/FreeRTOS/Colibri-iMX8X/SDK_2_9_0_MEK-MIMX8QX/rtos/freertos/freertos_kernel/list.c.obj
 .comment       0x000000000000004c       0x4d CMakeFiles/freertos_hello.elf.dir/home/ben/Toradex/LinuxDevelop/FreeRTOS/Colibri-iMX8X/SDK_2_9_0_MEK-MIMX8QX/rtos/freertos/freertos_kernel/portable/GCC/ARM_CM4F/port.c.obj
 .comment       0x000000000000004c       0x4d CMakeFiles/freertos_hello.elf.dir/home/ben/Toradex/LinuxDevelop/FreeRTOS/Colibri-iMX8X/SDK_2_9_0_MEK-MIMX8QX/rtos/freertos/freertos_kernel/queue.c.obj
 .comment       0x000000000000004c       0x4d CMakeFiles/freertos_hello.elf.dir/home/ben/Toradex/LinuxDevelop/FreeRTOS/Colibri-iMX8X/SDK_2_9_0_MEK-MIMX8QX/rtos/freertos/freertos_kernel/tasks.c.obj
 .comment       0x000000000000004c       0x4d CMakeFiles/freertos_hello.elf.dir/home/ben/Toradex/LinuxDevelop/FreeRTOS/Colibri-iMX8X/SDK_2_9_0_MEK-MIMX8QX/rtos/freertos/freertos_kernel/timers.c.obj
 .comment       0x000000000000004c       0x4d CMakeFiles/freertos_hello.elf.dir/home/ben/Toradex/LinuxDevelop/FreeRTOS/Colibri-iMX8X/SDK_2_9_0_MEK-MIMX8QX/rtos/freertos/freertos_kernel/portable/MemMang/heap_4.c.obj
 .comment       0x000000000000004c       0x4d CMakeFiles/freertos_hello.elf.dir/home/ben/Toradex/LinuxDevelop/FreeRTOS/Colibri-iMX8X/SDK_2_9_0_MEK-MIMX8QX/devices/MIMX8QX6/utilities/str/fsl_str.c.obj
 .comment       0x000000000000004c       0x4d CMakeFiles/freertos_hello.elf.dir/home/ben/Toradex/LinuxDevelop/FreeRTOS/Colibri-iMX8X/SDK_2_9_0_MEK-MIMX8QX/devices/MIMX8QX6/utilities/debug_console/fsl_debug_console.c.obj
 .comment       0x000000000000004c       0x4d CMakeFiles/freertos_hello.elf.dir/home/ben/Toradex/LinuxDevelop/FreeRTOS/Colibri-iMX8X/SDK_2_9_0_MEK-MIMX8QX/components/serial_manager/fsl_component_serial_manager.c.obj
 .comment       0x000000000000004c       0x4d CMakeFiles/freertos_hello.elf.dir/home/ben/Toradex/LinuxDevelop/FreeRTOS/Colibri-iMX8X/SDK_2_9_0_MEK-MIMX8QX/components/serial_manager/fsl_component_serial_port_uart.c.obj
 .comment       0x000000000000004c       0x4d CMakeFiles/freertos_hello.elf.dir/home/ben/Toradex/LinuxDevelop/FreeRTOS/Colibri-iMX8X/SDK_2_9_0_MEK-MIMX8QX/devices/MIMX8QX6/drivers/fsl_lpuart.c.obj
 .comment       0x000000000000004c       0x4d CMakeFiles/freertos_hello.elf.dir/home/ben/Toradex/LinuxDevelop/FreeRTOS/Colibri-iMX8X/SDK_2_9_0_MEK-MIMX8QX/components/uart/fsl_adapter_lpuart.c.obj
 .comment       0x000000000000004c       0x4d CMakeFiles/freertos_hello.elf.dir/home/ben/Toradex/LinuxDevelop/FreeRTOS/Colibri-iMX8X/SDK_2_9_0_MEK-MIMX8QX/devices/MIMX8QX6/system_MIMX8QX6_cm4.c.obj

.debug_frame    0x0000000000000000      0x11c
 .debug_frame   0x0000000000000000       0x28 /home/ben/Toradex/LinuxDevelop/FreeRTOS/Colibri-iMX8X/gcc-arm-none-eabi-9-2020-q2-update/bin/../lib/gcc/arm-none-eabi/9.3.1/../../../../arm-none-eabi/lib/thumb/v7e-m+fp/hard/libc_nano.a(lib_a-exit.o)
 .debug_frame   0x0000000000000028       0x2c /home/ben/Toradex/LinuxDevelop/FreeRTOS/Colibri-iMX8X/gcc-arm-none-eabi-9-2020-q2-update/bin/../lib/gcc/arm-none-eabi/9.3.1/../../../../arm-none-eabi/lib/thumb/v7e-m+fp/hard/libc_nano.a(lib_a-init.o)
 .debug_frame   0x0000000000000054       0x28 /home/ben/Toradex/LinuxDevelop/FreeRTOS/Colibri-iMX8X/gcc-arm-none-eabi-9-2020-q2-update/bin/../lib/gcc/arm-none-eabi/9.3.1/../../../../arm-none-eabi/lib/thumb/v7e-m+fp/hard/libc_nano.a(lib_a-memcpy-stub.o)
 .debug_frame   0x000000000000007c       0x20 /home/ben/Toradex/LinuxDevelop/FreeRTOS/Colibri-iMX8X/gcc-arm-none-eabi-9-2020-q2-update/bin/../lib/gcc/arm-none-eabi/9.3.1/../../../../arm-none-eabi/lib/thumb/v7e-m+fp/hard/libc_nano.a(lib_a-memset.o)
 .debug_frame   0x000000000000009c       0x2c /home/ben/Toradex/LinuxDevelop/FreeRTOS/Colibri-iMX8X/gcc-arm-none-eabi-9-2020-q2-update/bin/../lib/gcc/arm-none-eabi/9.3.1/thumb/v7e-m+fp/hard/libgcc.a(_aeabi_uldivmod.o)
 .debug_frame   0x00000000000000c8       0x34 /home/ben/Toradex/LinuxDevelop/FreeRTOS/Colibri-iMX8X/gcc-arm-none-eabi-9-2020-q2-update/bin/../lib/gcc/arm-none-eabi/9.3.1/thumb/v7e-m+fp/hard/libgcc.a(_udivmoddi4.o)
 .debug_frame   0x00000000000000fc       0x20 /home/ben/Toradex/LinuxDevelop/FreeRTOS/Colibri-iMX8X/gcc-arm-none-eabi-9-2020-q2-update/bin/../lib/gcc/arm-none-eabi/9.3.1/../../../../arm-none-eabi/lib/thumb/v7e-m+fp/hard/libnosys.a(_exit.o)
